Archive member included to satisfy reference by file (symbol)

../Libraries\libCMSISv2_LPC17xx.a(system_LPC17xx.o)
                              ./src/drivers/uart/uart.o (SystemFrequency)
d:/nxp/lpcxpresso_8.2.2_650/lpcxpresso/tools/bin/../lib/gcc/arm-none-eabi/5.4.1/armv7-m\libgcc.a(_arm_addsubdf3.o)
                              ./src/pi7/comunicacao_pic/comunicacao_pic.o (__aeabi_f2d)
d:/nxp/lpcxpresso_8.2.2_650/lpcxpresso/tools/bin/../lib/gcc/arm-none-eabi/5.4.1/armv7-m\libgcc.a(_arm_fixsfsi.o)
                              ./src/pi7/interpretador_comando/interpretador_comando.o (__aeabi_f2iz)
d:/nxp/lpcxpresso_8.2.2_650/lpcxpresso/tools/bin/../lib/gcc/arm-none-eabi/5.4.1/../../../../arm-none-eabi/lib/armv7-m\libc.a(lib_a-memcpy.o)
                              ./src/drivers/console/alloc.o (memcpy)
d:/nxp/lpcxpresso_8.2.2_650/lpcxpresso/tools/bin/../lib/gcc/arm-none-eabi/5.4.1/../../../../arm-none-eabi/lib/armv7-m\libc.a(lib_a-memset.o)
                              ./FreeRTOS_src/tasks.o (memset)
d:/nxp/lpcxpresso_8.2.2_650/lpcxpresso/tools/bin/../lib/gcc/arm-none-eabi/5.4.1/../../../../arm-none-eabi/lib/armv7-m\libc.a(lib_a-printf.o)
                              ./src/pi7/interpretador_comando/interpretador_comando.o (printf)
d:/nxp/lpcxpresso_8.2.2_650/lpcxpresso/tools/bin/../lib/gcc/arm-none-eabi/5.4.1/../../../../arm-none-eabi/lib/armv7-m\libc.a(lib_a-sprintf.o)
                              ./src/drivers/console/basic_io.o (sprintf)
d:/nxp/lpcxpresso_8.2.2_650/lpcxpresso/tools/bin/../lib/gcc/arm-none-eabi/5.4.1/../../../../arm-none-eabi/lib/armv7-m\libc.a(lib_a-strcat.o)
                              ./FreeRTOS_src/tasks.o (strcat)
d:/nxp/lpcxpresso_8.2.2_650/lpcxpresso/tools/bin/../lib/gcc/arm-none-eabi/5.4.1/../../../../arm-none-eabi/lib/armv7-m\libc.a(lib_a-strcpy.o)
                              d:/nxp/lpcxpresso_8.2.2_650/lpcxpresso/tools/bin/../lib/gcc/arm-none-eabi/5.4.1/../../../../arm-none-eabi/lib/armv7-m\libc.a(lib_a-strcat.o) (strcpy)
d:/nxp/lpcxpresso_8.2.2_650/lpcxpresso/tools/bin/../lib/gcc/arm-none-eabi/5.4.1/../../../../arm-none-eabi/lib/armv7-m\libc.a(lib_a-strlen-stub.o)
                              ./src/drivers/console/consoleprint.o (strlen)
d:/nxp/lpcxpresso_8.2.2_650/lpcxpresso/tools/bin/../lib/gcc/arm-none-eabi/5.4.1/../../../../arm-none-eabi/lib/armv7-m\libc.a(lib_a-strncpy.o)
                              ./FreeRTOS_src/tasks.o (strncpy)
d:/nxp/lpcxpresso_8.2.2_650/lpcxpresso/tools/bin/../lib/gcc/arm-none-eabi/5.4.1/../../../../arm-none-eabi/lib/armv7-m\libc.a(lib_a-svfprintf.o)
                              d:/nxp/lpcxpresso_8.2.2_650/lpcxpresso/tools/bin/../lib/gcc/arm-none-eabi/5.4.1/../../../../arm-none-eabi/lib/armv7-m\libc.a(lib_a-sprintf.o) (_svfprintf_r)
d:/nxp/lpcxpresso_8.2.2_650/lpcxpresso/tools/bin/../lib/gcc/arm-none-eabi/5.4.1/../../../../arm-none-eabi/lib/armv7-m\libc.a(lib_a-vfprintf.o)
                              d:/nxp/lpcxpresso_8.2.2_650/lpcxpresso/tools/bin/../lib/gcc/arm-none-eabi/5.4.1/../../../../arm-none-eabi/lib/armv7-m\libc.a(lib_a-printf.o) (_vfprintf_r)
d:/nxp/lpcxpresso_8.2.2_650/lpcxpresso/tools/bin/../lib/gcc/arm-none-eabi/5.4.1/../../../../arm-none-eabi/lib/armv7-m\libc.a(lib_a-wsetup.o)
                              d:/nxp/lpcxpresso_8.2.2_650/lpcxpresso/tools/bin/../lib/gcc/arm-none-eabi/5.4.1/../../../../arm-none-eabi/lib/armv7-m\libc.a(lib_a-vfprintf.o) (__swsetup_r)
d:/nxp/lpcxpresso_8.2.2_650/lpcxpresso/tools/bin/../lib/gcc/arm-none-eabi/5.4.1/../../../../arm-none-eabi/lib/armv7-m\libc.a(lib_a-dtoa.o)
                              d:/nxp/lpcxpresso_8.2.2_650/lpcxpresso/tools/bin/../lib/gcc/arm-none-eabi/5.4.1/../../../../arm-none-eabi/lib/armv7-m\libc.a(lib_a-svfprintf.o) (_dtoa_r)
d:/nxp/lpcxpresso_8.2.2_650/lpcxpresso/tools/bin/../lib/gcc/arm-none-eabi/5.4.1/../../../../arm-none-eabi/lib/armv7-m\libc.a(lib_a-fflush.o)
                              d:/nxp/lpcxpresso_8.2.2_650/lpcxpresso/tools/bin/../lib/gcc/arm-none-eabi/5.4.1/../../../../arm-none-eabi/lib/armv7-m\libc.a(lib_a-vfprintf.o) (_fflush_r)
d:/nxp/lpcxpresso_8.2.2_650/lpcxpresso/tools/bin/../lib/gcc/arm-none-eabi/5.4.1/../../../../arm-none-eabi/lib/armv7-m\libc.a(lib_a-findfp.o)
                              d:/nxp/lpcxpresso_8.2.2_650/lpcxpresso/tools/bin/../lib/gcc/arm-none-eabi/5.4.1/../../../../arm-none-eabi/lib/armv7-m\libc.a(lib_a-vfprintf.o) (__sinit)
d:/nxp/lpcxpresso_8.2.2_650/lpcxpresso/tools/bin/../lib/gcc/arm-none-eabi/5.4.1/../../../../arm-none-eabi/lib/armv7-m\libc.a(lib_a-fwalk.o)
                              d:/nxp/lpcxpresso_8.2.2_650/lpcxpresso/tools/bin/../lib/gcc/arm-none-eabi/5.4.1/../../../../arm-none-eabi/lib/armv7-m\libc.a(lib_a-findfp.o) (_fwalk)
d:/nxp/lpcxpresso_8.2.2_650/lpcxpresso/tools/bin/../lib/gcc/arm-none-eabi/5.4.1/../../../../arm-none-eabi/lib/armv7-m\libc.a(lib_a-impure.o)
                              d:/nxp/lpcxpresso_8.2.2_650/lpcxpresso/tools/bin/../lib/gcc/arm-none-eabi/5.4.1/../../../../arm-none-eabi/lib/armv7-m\libc.a(lib_a-fflush.o) (_global_impure_ptr)
d:/nxp/lpcxpresso_8.2.2_650/lpcxpresso/tools/bin/../lib/gcc/arm-none-eabi/5.4.1/../../../../arm-none-eabi/lib/armv7-m\libc.a(lib_a-locale.o)
                              d:/nxp/lpcxpresso_8.2.2_650/lpcxpresso/tools/bin/../lib/gcc/arm-none-eabi/5.4.1/../../../../arm-none-eabi/lib/armv7-m\libc.a(lib_a-svfprintf.o) (_localeconv_r)
d:/nxp/lpcxpresso_8.2.2_650/lpcxpresso/tools/bin/../lib/gcc/arm-none-eabi/5.4.1/../../../../arm-none-eabi/lib/armv7-m\libc.a(lib_a-makebuf.o)
                              d:/nxp/lpcxpresso_8.2.2_650/lpcxpresso/tools/bin/../lib/gcc/arm-none-eabi/5.4.1/../../../../arm-none-eabi/lib/armv7-m\libc.a(lib_a-wsetup.o) (__smakebuf_r)
d:/nxp/lpcxpresso_8.2.2_650/lpcxpresso/tools/bin/../lib/gcc/arm-none-eabi/5.4.1/../../../../arm-none-eabi/lib/armv7-m\libc.a(lib_a-memchr-stub.o)
                              d:/nxp/lpcxpresso_8.2.2_650/lpcxpresso/tools/bin/../lib/gcc/arm-none-eabi/5.4.1/../../../../arm-none-eabi/lib/armv7-m\libc.a(lib_a-svfprintf.o) (memchr)
d:/nxp/lpcxpresso_8.2.2_650/lpcxpresso/tools/bin/../lib/gcc/arm-none-eabi/5.4.1/../../../../arm-none-eabi/lib/armv7-m\libc.a(lib_a-mprec.o)
                              d:/nxp/lpcxpresso_8.2.2_650/lpcxpresso/tools/bin/../lib/gcc/arm-none-eabi/5.4.1/../../../../arm-none-eabi/lib/armv7-m\libc.a(lib_a-dtoa.o) (_Balloc)
d:/nxp/lpcxpresso_8.2.2_650/lpcxpresso/tools/bin/../lib/gcc/arm-none-eabi/5.4.1/../../../../arm-none-eabi/lib/armv7-m\libc.a(lib_a-stdio.o)
                              d:/nxp/lpcxpresso_8.2.2_650/lpcxpresso/tools/bin/../lib/gcc/arm-none-eabi/5.4.1/../../../../arm-none-eabi/lib/armv7-m\libc.a(lib_a-findfp.o) (__sread)
d:/nxp/lpcxpresso_8.2.2_650/lpcxpresso/tools/bin/../lib/gcc/arm-none-eabi/5.4.1/../../../../arm-none-eabi/lib/armv7-m\libc.a(lib_a-strcmp.o)
                              d:/nxp/lpcxpresso_8.2.2_650/lpcxpresso/tools/bin/../lib/gcc/arm-none-eabi/5.4.1/../../../../arm-none-eabi/lib/armv7-m\libc.a(lib_a-locale.o) (strcmp)
d:/nxp/lpcxpresso_8.2.2_650/lpcxpresso/tools/bin/../lib/gcc/arm-none-eabi/5.4.1/../../../../arm-none-eabi/lib/armv7-m\libc.a(lib_a-svfiprintf.o)
                              d:/nxp/lpcxpresso_8.2.2_650/lpcxpresso/tools/bin/../lib/gcc/arm-none-eabi/5.4.1/../../../../arm-none-eabi/lib/armv7-m\libc.a(lib_a-svfprintf.o) (__ssprint_r)
d:/nxp/lpcxpresso_8.2.2_650/lpcxpresso/tools/bin/../lib/gcc/arm-none-eabi/5.4.1/../../../../arm-none-eabi/lib/armv7-m\libc.a(lib_a-vfiprintf.o)
                              d:/nxp/lpcxpresso_8.2.2_650/lpcxpresso/tools/bin/../lib/gcc/arm-none-eabi/5.4.1/../../../../arm-none-eabi/lib/armv7-m\libc.a(lib_a-vfprintf.o) (__sprint_r)
d:/nxp/lpcxpresso_8.2.2_650/lpcxpresso/tools/bin/../lib/gcc/arm-none-eabi/5.4.1/../../../../arm-none-eabi/lib/armv7-m\libc.a(lib_a-writer.o)
                              d:/nxp/lpcxpresso_8.2.2_650/lpcxpresso/tools/bin/../lib/gcc/arm-none-eabi/5.4.1/../../../../arm-none-eabi/lib/armv7-m\libc.a(lib_a-stdio.o) (_write_r)
d:/nxp/lpcxpresso_8.2.2_650/lpcxpresso/tools/bin/../lib/gcc/arm-none-eabi/5.4.1/../../../../arm-none-eabi/lib/armv7-m\libc.a(lib_a-closer.o)
                              d:/nxp/lpcxpresso_8.2.2_650/lpcxpresso/tools/bin/../lib/gcc/arm-none-eabi/5.4.1/../../../../arm-none-eabi/lib/armv7-m\libc.a(lib_a-stdio.o) (_close_r)
d:/nxp/lpcxpresso_8.2.2_650/lpcxpresso/tools/bin/../lib/gcc/arm-none-eabi/5.4.1/../../../../arm-none-eabi/lib/armv7-m\libc.a(lib_a-fclose.o)
                              d:/nxp/lpcxpresso_8.2.2_650/lpcxpresso/tools/bin/../lib/gcc/arm-none-eabi/5.4.1/../../../../arm-none-eabi/lib/armv7-m\libc.a(lib_a-findfp.o) (_fclose_r)
d:/nxp/lpcxpresso_8.2.2_650/lpcxpresso/tools/bin/../lib/gcc/arm-none-eabi/5.4.1/../../../../arm-none-eabi/lib/armv7-m\libc.a(lib_a-fputwc.o)
                              d:/nxp/lpcxpresso_8.2.2_650/lpcxpresso/tools/bin/../lib/gcc/arm-none-eabi/5.4.1/../../../../arm-none-eabi/lib/armv7-m\libc.a(lib_a-vfiprintf.o) (_fputwc_r)
d:/nxp/lpcxpresso_8.2.2_650/lpcxpresso/tools/bin/../lib/gcc/arm-none-eabi/5.4.1/../../../../arm-none-eabi/lib/armv7-m\libc.a(lib_a-fstatr.o)
                              d:/nxp/lpcxpresso_8.2.2_650/lpcxpresso/tools/bin/../lib/gcc/arm-none-eabi/5.4.1/../../../../arm-none-eabi/lib/armv7-m\libc.a(lib_a-makebuf.o) (_fstat_r)
d:/nxp/lpcxpresso_8.2.2_650/lpcxpresso/tools/bin/../lib/gcc/arm-none-eabi/5.4.1/../../../../arm-none-eabi/lib/armv7-m\libc.a(lib_a-fvwrite.o)
                              d:/nxp/lpcxpresso_8.2.2_650/lpcxpresso/tools/bin/../lib/gcc/arm-none-eabi/5.4.1/../../../../arm-none-eabi/lib/armv7-m\libc.a(lib_a-vfiprintf.o) (__sfvwrite_r)
d:/nxp/lpcxpresso_8.2.2_650/lpcxpresso/tools/bin/../lib/gcc/arm-none-eabi/5.4.1/../../../../arm-none-eabi/lib/armv7-m\libc.a(lib_a-isattyr.o)
                              d:/nxp/lpcxpresso_8.2.2_650/lpcxpresso/tools/bin/../lib/gcc/arm-none-eabi/5.4.1/../../../../arm-none-eabi/lib/armv7-m\libc.a(lib_a-makebuf.o) (_isatty_r)
d:/nxp/lpcxpresso_8.2.2_650/lpcxpresso/tools/bin/../lib/gcc/arm-none-eabi/5.4.1/../../../../arm-none-eabi/lib/armv7-m\libc.a(lib_a-lseekr.o)
                              d:/nxp/lpcxpresso_8.2.2_650/lpcxpresso/tools/bin/../lib/gcc/arm-none-eabi/5.4.1/../../../../arm-none-eabi/lib/armv7-m\libc.a(lib_a-stdio.o) (_lseek_r)
d:/nxp/lpcxpresso_8.2.2_650/lpcxpresso/tools/bin/../lib/gcc/arm-none-eabi/5.4.1/../../../../arm-none-eabi/lib/armv7-m\libc.a(lib_a-memmove.o)
                              d:/nxp/lpcxpresso_8.2.2_650/lpcxpresso/tools/bin/../lib/gcc/arm-none-eabi/5.4.1/../../../../arm-none-eabi/lib/armv7-m\libc.a(lib_a-svfiprintf.o) (memmove)
d:/nxp/lpcxpresso_8.2.2_650/lpcxpresso/tools/bin/../lib/gcc/arm-none-eabi/5.4.1/../../../../arm-none-eabi/lib/armv7-m\libc.a(lib_a-readr.o)
                              d:/nxp/lpcxpresso_8.2.2_650/lpcxpresso/tools/bin/../lib/gcc/arm-none-eabi/5.4.1/../../../../arm-none-eabi/lib/armv7-m\libc.a(lib_a-stdio.o) (_read_r)
d:/nxp/lpcxpresso_8.2.2_650/lpcxpresso/tools/bin/../lib/gcc/arm-none-eabi/5.4.1/../../../../arm-none-eabi/lib/armv7-m\libc.a(lib_a-reent.o)
                              d:/nxp/lpcxpresso_8.2.2_650/lpcxpresso/tools/bin/../lib/gcc/arm-none-eabi/5.4.1/../../../../arm-none-eabi/lib/armv7-m\libc.a(lib_a-writer.o) (errno)
d:/nxp/lpcxpresso_8.2.2_650/lpcxpresso/tools/bin/../lib/gcc/arm-none-eabi/5.4.1/../../../../arm-none-eabi/lib/armv7-m\libc.a(lib_a-wbuf.o)
                              d:/nxp/lpcxpresso_8.2.2_650/lpcxpresso/tools/bin/../lib/gcc/arm-none-eabi/5.4.1/../../../../arm-none-eabi/lib/armv7-m\libc.a(lib_a-fputwc.o) (__swbuf_r)
d:/nxp/lpcxpresso_8.2.2_650/lpcxpresso/tools/bin/../lib/gcc/arm-none-eabi/5.4.1/../../../../arm-none-eabi/lib/armv7-m\libc.a(lib_a-wcrtomb.o)
                              d:/nxp/lpcxpresso_8.2.2_650/lpcxpresso/tools/bin/../lib/gcc/arm-none-eabi/5.4.1/../../../../arm-none-eabi/lib/armv7-m\libc.a(lib_a-fputwc.o) (_wcrtomb_r)
d:/nxp/lpcxpresso_8.2.2_650/lpcxpresso/tools/bin/../lib/gcc/arm-none-eabi/5.4.1/../../../../arm-none-eabi/lib/armv7-m\libc.a(lib_a-wctomb_r.o)
                              d:/nxp/lpcxpresso_8.2.2_650/lpcxpresso/tools/bin/../lib/gcc/arm-none-eabi/5.4.1/../../../../arm-none-eabi/lib/armv7-m\libc.a(lib_a-wcrtomb.o) (__wctomb)
d:/nxp/lpcxpresso_8.2.2_650/lpcxpresso/tools/bin/../lib/gcc/arm-none-eabi/5.4.1/../../../../arm-none-eabi/lib/armv7-m\libcr_newlib_semihost.a(syscalls.o)
                              d:/nxp/lpcxpresso_8.2.2_650/lpcxpresso/tools/bin/../lib/gcc/arm-none-eabi/5.4.1/../../../../arm-none-eabi/lib/armv7-m\libc.a(lib_a-readr.o) (_read)
d:/nxp/lpcxpresso_8.2.2_650/lpcxpresso/tools/bin/../lib/gcc/arm-none-eabi/5.4.1/armv7-m\libgcc.a(_arm_muldivdf3.o)
                              d:/nxp/lpcxpresso_8.2.2_650/lpcxpresso/tools/bin/../lib/gcc/arm-none-eabi/5.4.1/../../../../arm-none-eabi/lib/armv7-m\libc.a(lib_a-dtoa.o) (__aeabi_dmul)
d:/nxp/lpcxpresso_8.2.2_650/lpcxpresso/tools/bin/../lib/gcc/arm-none-eabi/5.4.1/armv7-m\libgcc.a(_arm_cmpdf2.o)
                              d:/nxp/lpcxpresso_8.2.2_650/lpcxpresso/tools/bin/../lib/gcc/arm-none-eabi/5.4.1/../../../../arm-none-eabi/lib/armv7-m\libc.a(lib_a-svfprintf.o) (__aeabi_dcmpeq)
d:/nxp/lpcxpresso_8.2.2_650/lpcxpresso/tools/bin/../lib/gcc/arm-none-eabi/5.4.1/armv7-m\libgcc.a(_arm_unorddf2.o)
                              d:/nxp/lpcxpresso_8.2.2_650/lpcxpresso/tools/bin/../lib/gcc/arm-none-eabi/5.4.1/../../../../arm-none-eabi/lib/armv7-m\libc.a(lib_a-svfprintf.o) (__aeabi_dcmpun)
d:/nxp/lpcxpresso_8.2.2_650/lpcxpresso/tools/bin/../lib/gcc/arm-none-eabi/5.4.1/armv7-m\libgcc.a(_arm_fixdfsi.o)
                              d:/nxp/lpcxpresso_8.2.2_650/lpcxpresso/tools/bin/../lib/gcc/arm-none-eabi/5.4.1/../../../../arm-none-eabi/lib/armv7-m\libc.a(lib_a-dtoa.o) (__aeabi_d2iz)
d:/nxp/lpcxpresso_8.2.2_650/lpcxpresso/tools/bin/../lib/gcc/arm-none-eabi/5.4.1/armv7-m\libgcc.a(_aeabi_uldivmod.o)
                              d:/nxp/lpcxpresso_8.2.2_650/lpcxpresso/tools/bin/../lib/gcc/arm-none-eabi/5.4.1/../../../../arm-none-eabi/lib/armv7-m\libc.a(lib_a-svfprintf.o) (__aeabi_uldivmod)
d:/nxp/lpcxpresso_8.2.2_650/lpcxpresso/tools/bin/../lib/gcc/arm-none-eabi/5.4.1/armv7-m\libgcc.a(_udivmoddi4.o)
                              d:/nxp/lpcxpresso_8.2.2_650/lpcxpresso/tools/bin/../lib/gcc/arm-none-eabi/5.4.1/armv7-m\libgcc.a(_aeabi_uldivmod.o) (__udivmoddi4)
d:/nxp/lpcxpresso_8.2.2_650/lpcxpresso/tools/bin/../lib/gcc/arm-none-eabi/5.4.1/armv7-m\libgcc.a(_dvmd_tls.o)
                              d:/nxp/lpcxpresso_8.2.2_650/lpcxpresso/tools/bin/../lib/gcc/arm-none-eabi/5.4.1/armv7-m\libgcc.a(_aeabi_uldivmod.o) (__aeabi_ldiv0)
d:/nxp/lpcxpresso_8.2.2_650/lpcxpresso/tools/bin/../lib/gcc/arm-none-eabi/5.4.1/../../../../arm-none-eabi/lib/armv7-m\libc.a(lib_a-errno.o)
                              d:/nxp/lpcxpresso_8.2.2_650/lpcxpresso/tools/bin/../lib/gcc/arm-none-eabi/5.4.1/../../../../arm-none-eabi/lib/armv7-m\libcr_newlib_semihost.a(syscalls.o) (__errno)

Allocating common symbols
Common symbol       size              file

lastWakeTime        0x4               ./src/main.o
UART1Queue          0x4               ./src/drivers/uart/uart.o
match_counter0      0x4               ./src/drivers/pwm/pwm.o
errno               0x4               d:/nxp/lpcxpresso_8.2.2_650/lpcxpresso/tools/bin/../lib/gcc/arm-none-eabi/5.4.1/../../../../arm-none-eabi/lib/armv7-m\libc.a(lib_a-reent.o)
UART1Buffer         0x40              ./src/drivers/uart/uart.o
UART0Buffer         0x40              ./src/drivers/uart/uart.o
_state              0x4               ./src/pi7/comunicacao_pc/modbus.o
xQueueRegistry      0x50              ./FreeRTOS_src/queue.o
qControlCommands    0x4               ./src/main.o
UART1Status         0x4               ./src/drivers/uart/uart.o
stt_line            0x4               ./src/pi7/estado_trajetoria/estado_trajetoria.o
idxTxBuffer         0x4               ./src/pi7/comunicacao_pc/modbus.o
idxRxBuffer         0x4               ./src/pi7/comunicacao_pc/modbus.o
match_counter1      0x4               ./src/drivers/pwm/pwm.o
UART0Queue          0x4               ./src/drivers/uart/uart.o
qCommDev            0x4               ./src/main.o
rxBuffer            0x3e8             ./src/pi7/comunicacao_pc/modbus.o
txBuffer            0x400             ./src/pi7/comunicacao_pc/modbus.o
_mode               0x4               ./src/pi7/comunicacao_pc/modbus.o
ptj_program         0x258             ./src/pi7/programa_trajetoria/programa_trajetoria.o
UART0Status         0x4               ./src/drivers/uart/uart.o
trj_status          0x4               ./src/pi7/controlador_trajetoria/controlador_trajetoria.o
qCommPIC            0x4               ./src/main.o

Discarded input sections

 .group         0x00000000        0x8 ./src/pi7/programa_trajetoria/programa_trajetoria.o
 .group         0x00000000        0x8 ./src/pi7/interpretador_comando/interpretador_comando.o
 .group         0x00000000        0x8 ./src/pi7/interpretador_comando/interpretador_comando.o
 .group         0x00000000        0x8 ./src/pi7/interpretador_comando/interpretador_comando.o
 .group         0x00000000        0x8 ./src/pi7/interpretador_comando/interpretador_comando.o
 .group         0x00000000        0x8 ./src/pi7/interpretador_comando/interpretador_comando.o
 .group         0x00000000        0x8 ./src/pi7/interpretador_comando/interpretador_comando.o
 .group         0x00000000        0x8 ./src/pi7/interpretador_comando/interpretador_comando.o
 .group         0x00000000        0x8 ./src/pi7/interpretador_comando/interpretador_comando.o
 .group         0x00000000        0x8 ./src/pi7/interpretador_comando/interpretador_comando.o
 .group         0x00000000        0x8 ./src/pi7/interpretador_comando/interpretador_comando.o
 .group         0x00000000        0x8 ./src/pi7/interpretador_comando/interpretador_comando.o
 .group         0x00000000        0x8 ./src/pi7/interpretador_comando/interpretador_comando.o
 .group         0x00000000        0x8 ./src/pi7/interpretador_comando/interpretador_comando.o
 .group         0x00000000        0x8 ./src/pi7/interpretador_comando/interpretador_comando.o
 .group         0x00000000        0x8 ./src/pi7/interpretador_comando/interpretador_comando.o
 .group         0x00000000        0x8 ./src/pi7/interpretador_comando/interpretador_comando.o
 .group         0x00000000        0x8 ./src/pi7/interpretador_comando/interpretador_comando.o
 .group         0x00000000        0x8 ./src/pi7/interpretador_comando/interpretador_comando.o
 .group         0x00000000        0x8 ./src/pi7/interpretador_comando/interpretador_comando.o
 .group         0x00000000        0x8 ./src/pi7/interpretador_comando/interpretador_comando.o
 .group         0x00000000        0x8 ./src/pi7/interpretador_comando/interpretador_comando.o
 .group         0x00000000        0x8 ./src/pi7/interpretador_comando/interpretador_comando.o
 .group         0x00000000        0x8 ./src/pi7/interpretador_comando/interpretador_comando.o
 .group         0x00000000        0x8 ./src/pi7/interpretador_comando/interpretador_comando.o
 .group         0x00000000        0x8 ./src/pi7/interpretador_comando/interpretador_comando.o
 .group         0x00000000        0x8 ./src/pi7/interpretador_comando/interpretador_comando.o
 .group         0x00000000        0x8 ./src/pi7/interpretador_comando/interpretador_comando.o
 .group         0x00000000        0x8 ./src/pi7/interpretador_comando/interpretador_comando.o
 .group         0x00000000        0x8 ./src/pi7/interpretador_comando/interpretador_comando.o
 .group         0x00000000        0x8 ./src/pi7/interpretador_comando/interpretador_comando.o
 .group         0x00000000        0x8 ./src/pi7/interpretador_comando/interpretador_comando.o
 .group         0x00000000        0x8 ./src/pi7/interpretador_comando/interpretador_comando.o
 .group         0x00000000        0x8 ./src/pi7/interpretador_comando/interpretador_comando.o
 .group         0x00000000        0x8 ./src/pi7/interpretador_comando/interpretador_comando.o
 .group         0x00000000        0x8 ./src/pi7/interpretador_comando/interpretador_comando.o
 .group         0x00000000        0x8 ./src/pi7/interpretador_comando/interpretador_comando.o
 .group         0x00000000        0x8 ./src/pi7/interpretador_comando/interpretador_comando.o
 .group         0x00000000        0x8 ./src/pi7/interpretador_comando/interpretador_comando.o
 .group         0x00000000        0x8 ./src/pi7/interpretador_comando/interpretador_comando.o
 .group         0x00000000        0x8 ./src/pi7/interpretador_comando/interpretador_comando.o
 .group         0x00000000        0x8 ./src/pi7/interpretador_comando/interpretador_comando.o
 .group         0x00000000        0x8 ./src/pi7/interpretador_comando/interpretador_comando.o
 .group         0x00000000        0x8 ./src/pi7/interpretador_comando/interpretador_comando.o
 .group         0x00000000        0x8 ./src/pi7/interpretador_comando/interpretador_comando.o
 .group         0x00000000        0x8 ./src/pi7/interpretador_comando/interpretador_comando.o
 .debug_macro   0x00000000      0x89e ./src/pi7/interpretador_comando/interpretador_comando.o
 .group         0x00000000        0x8 ./src/pi7/estado_trajetoria/estado_trajetoria.o
 .group         0x00000000        0x8 ./src/pi7/estado_trajetoria/estado_trajetoria.o
 .group         0x00000000        0x8 ./src/pi7/estado_trajetoria/estado_trajetoria.o
 .group         0x00000000        0x8 ./src/pi7/estado_trajetoria/estado_trajetoria.o
 .group         0x00000000        0x8 ./src/pi7/estado_trajetoria/estado_trajetoria.o
 .group         0x00000000        0x8 ./src/pi7/estado_trajetoria/estado_trajetoria.o
 .group         0x00000000        0x8 ./src/pi7/estado_trajetoria/estado_trajetoria.o
 .group         0x00000000        0x8 ./src/pi7/estado_trajetoria/estado_trajetoria.o
 .group         0x00000000        0x8 ./src/pi7/estado_trajetoria/estado_trajetoria.o
 .group         0x00000000        0x8 ./src/pi7/estado_trajetoria/estado_trajetoria.o
 .group         0x00000000        0x8 ./src/pi7/estado_trajetoria/estado_trajetoria.o
 .group         0x00000000        0x8 ./src/pi7/estado_trajetoria/estado_trajetoria.o
 .group         0x00000000        0x8 ./src/pi7/estado_trajetoria/estado_trajetoria.o
 .group         0x00000000        0x8 ./src/pi7/estado_trajetoria/estado_trajetoria.o
 .group         0x00000000        0x8 ./src/pi7/estado_trajetoria/estado_trajetoria.o
 .group         0x00000000        0x8 ./src/pi7/estado_trajetoria/estado_trajetoria.o
 .group         0x00000000        0x8 ./src/pi7/estado_trajetoria/estado_trajetoria.o
 .group         0x00000000        0x8 ./src/pi7/estado_trajetoria/estado_trajetoria.o
 .group         0x00000000        0x8 ./src/pi7/estado_trajetoria/estado_trajetoria.o
 .group         0x00000000        0x8 ./src/pi7/estado_trajetoria/estado_trajetoria.o
 .group         0x00000000        0x8 ./src/pi7/estado_trajetoria/estado_trajetoria.o
 .group         0x00000000        0x8 ./src/pi7/estado_trajetoria/estado_trajetoria.o
 .group         0x00000000        0x8 ./src/pi7/estado_trajetoria/estado_trajetoria.o
 .group         0x00000000        0x8 ./src/pi7/estado_trajetoria/estado_trajetoria.o
 .group         0x00000000        0x8 ./src/pi7/estado_trajetoria/estado_trajetoria.o
 .group         0x00000000        0x8 ./src/pi7/estado_trajetoria/estado_trajetoria.o
 .group         0x00000000        0x8 ./src/pi7/estado_trajetoria/estado_trajetoria.o
 .debug_macro   0x00000000      0x89e ./src/pi7/estado_trajetoria/estado_trajetoria.o
 .debug_macro   0x00000000       0x22 ./src/pi7/estado_trajetoria/estado_trajetoria.o
 .debug_macro   0x00000000       0x4c ./src/pi7/estado_trajetoria/estado_trajetoria.o
 .debug_macro   0x00000000       0x8d ./src/pi7/estado_trajetoria/estado_trajetoria.o
 .debug_macro   0x00000000       0x35 ./src/pi7/estado_trajetoria/estado_trajetoria.o
 .debug_macro   0x00000000       0x9c ./src/pi7/estado_trajetoria/estado_trajetoria.o
 .debug_macro   0x00000000       0x16 ./src/pi7/estado_trajetoria/estado_trajetoria.o
 .debug_macro   0x00000000       0x4a ./src/pi7/estado_trajetoria/estado_trajetoria.o
 .debug_macro   0x00000000      0x30d ./src/pi7/estado_trajetoria/estado_trajetoria.o
 .debug_macro   0x00000000       0x10 ./src/pi7/estado_trajetoria/estado_trajetoria.o
 .debug_macro   0x00000000       0x52 ./src/pi7/estado_trajetoria/estado_trajetoria.o
 .debug_macro   0x00000000       0x1f ./src/pi7/estado_trajetoria/estado_trajetoria.o
 .debug_macro   0x00000000       0x43 ./src/pi7/estado_trajetoria/estado_trajetoria.o
 .debug_macro   0x00000000       0x20 ./src/pi7/estado_trajetoria/estado_trajetoria.o
 .debug_macro   0x00000000      0x187 ./src/pi7/estado_trajetoria/estado_trajetoria.o
 .debug_macro   0x00000000       0x10 ./src/pi7/estado_trajetoria/estado_trajetoria.o
 .debug_macro   0x00000000       0x5e ./src/pi7/estado_trajetoria/estado_trajetoria.o
 .debug_macro   0x00000000       0x1c ./src/pi7/estado_trajetoria/estado_trajetoria.o
 .debug_macro   0x00000000       0x52 ./src/pi7/estado_trajetoria/estado_trajetoria.o
 .debug_macro   0x00000000       0x40 ./src/pi7/estado_trajetoria/estado_trajetoria.o
 .debug_macro   0x00000000       0x10 ./src/pi7/estado_trajetoria/estado_trajetoria.o
 .debug_macro   0x00000000       0x40 ./src/pi7/estado_trajetoria/estado_trajetoria.o
 .debug_macro   0x00000000       0xd7 ./src/pi7/estado_trajetoria/estado_trajetoria.o
 .debug_macro   0x00000000       0x16 ./src/pi7/estado_trajetoria/estado_trajetoria.o
 .debug_macro   0x00000000      0x189 ./src/pi7/estado_trajetoria/estado_trajetoria.o
 .group         0x00000000        0x8 ./src/pi7/controlador_trajetoria/controlador_trajetoria.o
 .group         0x00000000        0x8 ./src/pi7/controlador_trajetoria/controlador_trajetoria.o
 .group         0x00000000        0x8 ./src/pi7/controlador_trajetoria/controlador_trajetoria.o
 .group         0x00000000        0x8 ./src/pi7/controlador_trajetoria/controlador_trajetoria.o
 .group         0x00000000        0x8 ./src/pi7/controlador_trajetoria/controlador_trajetoria.o
 .group         0x00000000        0x8 ./src/pi7/controlador_trajetoria/controlador_trajetoria.o
 .group         0x00000000        0x8 ./src/pi7/controlador_trajetoria/controlador_trajetoria.o
 .group         0x00000000        0x8 ./src/pi7/controlador_trajetoria/controlador_trajetoria.o
 .group         0x00000000        0x8 ./src/pi7/controlador_trajetoria/controlador_trajetoria.o
 .group         0x00000000        0x8 ./src/pi7/controlador_trajetoria/controlador_trajetoria.o
 .group         0x00000000        0x8 ./src/pi7/controlador_trajetoria/controlador_trajetoria.o
 .group         0x00000000        0x8 ./src/pi7/controlador_trajetoria/controlador_trajetoria.o
 .group         0x00000000        0x8 ./src/pi7/controlador_trajetoria/controlador_trajetoria.o
 .group         0x00000000        0x8 ./src/pi7/controlador_trajetoria/controlador_trajetoria.o
 .group         0x00000000        0x8 ./src/pi7/controlador_trajetoria/controlador_trajetoria.o
 .group         0x00000000        0x8 ./src/pi7/controlador_trajetoria/controlador_trajetoria.o
 .group         0x00000000        0x8 ./src/pi7/controlador_trajetoria/controlador_trajetoria.o
 .group         0x00000000        0x8 ./src/pi7/controlador_trajetoria/controlador_trajetoria.o
 .group         0x00000000        0x8 ./src/pi7/controlador_trajetoria/controlador_trajetoria.o
 .group         0x00000000        0x8 ./src/pi7/controlador_trajetoria/controlador_trajetoria.o
 .group         0x00000000        0x8 ./src/pi7/controlador_trajetoria/controlador_trajetoria.o
 .group         0x00000000        0x8 ./src/pi7/controlador_trajetoria/controlador_trajetoria.o
 .group         0x00000000        0x8 ./src/pi7/controlador_trajetoria/controlador_trajetoria.o
 .group         0x00000000        0x8 ./src/pi7/controlador_trajetoria/controlador_trajetoria.o
 .group         0x00000000        0x8 ./src/pi7/controlador_trajetoria/controlador_trajetoria.o
 .group         0x00000000        0x8 ./src/pi7/controlador_trajetoria/controlador_trajetoria.o
 .group         0x00000000        0x8 ./src/pi7/controlador_trajetoria/controlador_trajetoria.o
 .group         0x00000000        0x8 ./src/pi7/controlador_trajetoria/controlador_trajetoria.o
 .group         0x00000000        0x8 ./src/pi7/controlador_trajetoria/controlador_trajetoria.o
 .group         0x00000000        0x8 ./src/pi7/controlador_trajetoria/controlador_trajetoria.o
 .group         0x00000000        0x8 ./src/pi7/controlador_trajetoria/controlador_trajetoria.o
 .group         0x00000000        0x8 ./src/pi7/controlador_trajetoria/controlador_trajetoria.o
 .group         0x00000000        0x8 ./src/pi7/controlador_trajetoria/controlador_trajetoria.o
 .group         0x00000000        0x8 ./src/pi7/controlador_trajetoria/controlador_trajetoria.o
 .group         0x00000000        0x8 ./src/pi7/controlador_trajetoria/controlador_trajetoria.o
 .debug_macro   0x00000000      0x89e ./src/pi7/controlador_trajetoria/controlador_trajetoria.o
 .debug_macro   0x00000000      0x174 ./src/pi7/controlador_trajetoria/controlador_trajetoria.o
 .debug_macro   0x00000000       0x46 ./src/pi7/controlador_trajetoria/controlador_trajetoria.o
 .debug_macro   0x00000000      0x137 ./src/pi7/controlador_trajetoria/controlador_trajetoria.o
 .debug_macro   0x00000000       0xa3 ./src/pi7/controlador_trajetoria/controlador_trajetoria.o
 .debug_macro   0x00000000       0x12 ./src/pi7/controlador_trajetoria/controlador_trajetoria.o
 .debug_macro   0x00000000       0x1f ./src/pi7/controlador_trajetoria/controlador_trajetoria.o
 .debug_macro   0x00000000      0x17e ./src/pi7/controlador_trajetoria/controlador_trajetoria.o
 .debug_macro   0x00000000       0x6a ./src/pi7/controlador_trajetoria/controlador_trajetoria.o
 .debug_macro   0x00000000       0x22 ./src/pi7/controlador_trajetoria/controlador_trajetoria.o
 .debug_macro   0x00000000       0x4c ./src/pi7/controlador_trajetoria/controlador_trajetoria.o
 .debug_macro   0x00000000       0x8d ./src/pi7/controlador_trajetoria/controlador_trajetoria.o
 .debug_macro   0x00000000       0x35 ./src/pi7/controlador_trajetoria/controlador_trajetoria.o
 .debug_macro   0x00000000       0x9c ./src/pi7/controlador_trajetoria/controlador_trajetoria.o
 .debug_macro   0x00000000       0x16 ./src/pi7/controlador_trajetoria/controlador_trajetoria.o
 .debug_macro   0x00000000       0x4a ./src/pi7/controlador_trajetoria/controlador_trajetoria.o
 .debug_macro   0x00000000       0x35 ./src/pi7/controlador_trajetoria/controlador_trajetoria.o
 .debug_macro   0x00000000      0x30d ./src/pi7/controlador_trajetoria/controlador_trajetoria.o
 .debug_macro   0x00000000       0x10 ./src/pi7/controlador_trajetoria/controlador_trajetoria.o
 .debug_macro   0x00000000       0x52 ./src/pi7/controlador_trajetoria/controlador_trajetoria.o
 .debug_macro   0x00000000       0x1f ./src/pi7/controlador_trajetoria/controlador_trajetoria.o
 .debug_macro   0x00000000       0x43 ./src/pi7/controlador_trajetoria/controlador_trajetoria.o
 .debug_macro   0x00000000       0x20 ./src/pi7/controlador_trajetoria/controlador_trajetoria.o
 .debug_macro   0x00000000      0x187 ./src/pi7/controlador_trajetoria/controlador_trajetoria.o
 .debug_macro   0x00000000       0x10 ./src/pi7/controlador_trajetoria/controlador_trajetoria.o
 .debug_macro   0x00000000       0x5e ./src/pi7/controlador_trajetoria/controlador_trajetoria.o
 .debug_macro   0x00000000       0x1c ./src/pi7/controlador_trajetoria/controlador_trajetoria.o
 .debug_macro   0x00000000       0x52 ./src/pi7/controlador_trajetoria/controlador_trajetoria.o
 .debug_macro   0x00000000       0x40 ./src/pi7/controlador_trajetoria/controlador_trajetoria.o
 .debug_macro   0x00000000       0x10 ./src/pi7/controlador_trajetoria/controlador_trajetoria.o
 .debug_macro   0x00000000       0x40 ./src/pi7/controlador_trajetoria/controlador_trajetoria.o
 .debug_macro   0x00000000       0xd7 ./src/pi7/controlador_trajetoria/controlador_trajetoria.o
 .debug_macro   0x00000000       0x16 ./src/pi7/controlador_trajetoria/controlador_trajetoria.o
 .debug_macro   0x00000000      0x189 ./src/pi7/controlador_trajetoria/controlador_trajetoria.o
 .debug_macro   0x00000000       0x34 ./src/pi7/controlador_trajetoria/controlador_trajetoria.o
 .group         0x00000000        0x8 ./src/pi7/comunicacao_pic/comunicacao_pic.o
 .group         0x00000000        0x8 ./src/pi7/comunicacao_pic/comunicacao_pic.o
 .group         0x00000000        0x8 ./src/pi7/comunicacao_pic/comunicacao_pic.o
 .group         0x00000000        0x8 ./src/pi7/comunicacao_pic/comunicacao_pic.o
 .group         0x00000000        0x8 ./src/pi7/comunicacao_pic/comunicacao_pic.o
 .group         0x00000000        0x8 ./src/pi7/comunicacao_pic/comunicacao_pic.o
 .group         0x00000000        0x8 ./src/pi7/comunicacao_pic/comunicacao_pic.o
 .group         0x00000000        0x8 ./src/pi7/comunicacao_pic/comunicacao_pic.o
 .group         0x00000000        0x8 ./src/pi7/comunicacao_pic/comunicacao_pic.o
 .group         0x00000000        0x8 ./src/pi7/comunicacao_pic/comunicacao_pic.o
 .group         0x00000000        0x8 ./src/pi7/comunicacao_pic/comunicacao_pic.o
 .group         0x00000000        0x8 ./src/pi7/comunicacao_pic/comunicacao_pic.o
 .group         0x00000000        0x8 ./src/pi7/comunicacao_pic/comunicacao_pic.o
 .group         0x00000000        0x8 ./src/pi7/comunicacao_pic/comunicacao_pic.o
 .group         0x00000000        0x8 ./src/pi7/comunicacao_pic/comunicacao_pic.o
 .group         0x00000000        0x8 ./src/pi7/comunicacao_pic/comunicacao_pic.o
 .group         0x00000000        0x8 ./src/pi7/comunicacao_pic/comunicacao_pic.o
 .group         0x00000000        0x8 ./src/pi7/comunicacao_pic/comunicacao_pic.o
 .group         0x00000000        0x8 ./src/pi7/comunicacao_pic/comunicacao_pic.o
 .group         0x00000000        0x8 ./src/pi7/comunicacao_pic/comunicacao_pic.o
 .group         0x00000000        0x8 ./src/pi7/comunicacao_pic/comunicacao_pic.o
 .group         0x00000000        0x8 ./src/pi7/comunicacao_pic/comunicacao_pic.o
 .group         0x00000000        0x8 ./src/pi7/comunicacao_pic/comunicacao_pic.o
 .group         0x00000000        0x8 ./src/pi7/comunicacao_pic/comunicacao_pic.o
 .group         0x00000000        0x8 ./src/pi7/comunicacao_pic/comunicacao_pic.o
 .group         0x00000000        0x8 ./src/pi7/comunicacao_pic/comunicacao_pic.o
 .group         0x00000000        0x8 ./src/pi7/comunicacao_pic/comunicacao_pic.o
 .group         0x00000000        0x8 ./src/pi7/comunicacao_pic/comunicacao_pic.o
 .group         0x00000000        0x8 ./src/pi7/comunicacao_pic/comunicacao_pic.o
 .group         0x00000000        0x8 ./src/pi7/comunicacao_pic/comunicacao_pic.o
 .group         0x00000000        0x8 ./src/pi7/comunicacao_pic/comunicacao_pic.o
 .group         0x00000000        0x8 ./src/pi7/comunicacao_pic/comunicacao_pic.o
 .group         0x00000000        0x8 ./src/pi7/comunicacao_pic/comunicacao_pic.o
 .group         0x00000000        0x8 ./src/pi7/comunicacao_pic/comunicacao_pic.o
 .group         0x00000000        0x8 ./src/pi7/comunicacao_pic/comunicacao_pic.o
 .group         0x00000000        0x8 ./src/pi7/comunicacao_pic/comunicacao_pic.o
 .group         0x00000000        0x8 ./src/pi7/comunicacao_pic/comunicacao_pic.o
 .group         0x00000000        0x8 ./src/pi7/comunicacao_pic/comunicacao_pic.o
 .group         0x00000000        0x8 ./src/pi7/comunicacao_pic/comunicacao_pic.o
 .group         0x00000000        0x8 ./src/pi7/comunicacao_pic/comunicacao_pic.o
 .group         0x00000000        0x8 ./src/pi7/comunicacao_pic/comunicacao_pic.o
 .group         0x00000000        0x8 ./src/pi7/comunicacao_pic/comunicacao_pic.o
 .group         0x00000000        0x8 ./src/pi7/comunicacao_pic/comunicacao_pic.o
 .group         0x00000000        0x8 ./src/pi7/comunicacao_pic/comunicacao_pic.o
 .debug_macro   0x00000000      0x89e ./src/pi7/comunicacao_pic/comunicacao_pic.o
 .debug_macro   0x00000000      0x174 ./src/pi7/comunicacao_pic/comunicacao_pic.o
 .debug_macro   0x00000000       0x46 ./src/pi7/comunicacao_pic/comunicacao_pic.o
 .debug_macro   0x00000000      0x137 ./src/pi7/comunicacao_pic/comunicacao_pic.o
 .debug_macro   0x00000000       0xa3 ./src/pi7/comunicacao_pic/comunicacao_pic.o
 .debug_macro   0x00000000       0x12 ./src/pi7/comunicacao_pic/comunicacao_pic.o
 .debug_macro   0x00000000       0x1f ./src/pi7/comunicacao_pic/comunicacao_pic.o
 .debug_macro   0x00000000      0x17e ./src/pi7/comunicacao_pic/comunicacao_pic.o
 .debug_macro   0x00000000       0x6a ./src/pi7/comunicacao_pic/comunicacao_pic.o
 .debug_macro   0x00000000       0x22 ./src/pi7/comunicacao_pic/comunicacao_pic.o
 .debug_macro   0x00000000       0x4c ./src/pi7/comunicacao_pic/comunicacao_pic.o
 .debug_macro   0x00000000       0x8d ./src/pi7/comunicacao_pic/comunicacao_pic.o
 .debug_macro   0x00000000       0x35 ./src/pi7/comunicacao_pic/comunicacao_pic.o
 .debug_macro   0x00000000       0x9c ./src/pi7/comunicacao_pic/comunicacao_pic.o
 .debug_macro   0x00000000       0x16 ./src/pi7/comunicacao_pic/comunicacao_pic.o
 .debug_macro   0x00000000       0x4a ./src/pi7/comunicacao_pic/comunicacao_pic.o
 .debug_macro   0x00000000       0x35 ./src/pi7/comunicacao_pic/comunicacao_pic.o
 .debug_macro   0x00000000      0x30d ./src/pi7/comunicacao_pic/comunicacao_pic.o
 .debug_macro   0x00000000       0x10 ./src/pi7/comunicacao_pic/comunicacao_pic.o
 .debug_macro   0x00000000       0x52 ./src/pi7/comunicacao_pic/comunicacao_pic.o
 .debug_macro   0x00000000       0x1f ./src/pi7/comunicacao_pic/comunicacao_pic.o
 .debug_macro   0x00000000       0x43 ./src/pi7/comunicacao_pic/comunicacao_pic.o
 .debug_macro   0x00000000       0x20 ./src/pi7/comunicacao_pic/comunicacao_pic.o
 .debug_macro   0x00000000      0x187 ./src/pi7/comunicacao_pic/comunicacao_pic.o
 .debug_macro   0x00000000       0x10 ./src/pi7/comunicacao_pic/comunicacao_pic.o
 .debug_macro   0x00000000       0x5e ./src/pi7/comunicacao_pic/comunicacao_pic.o
 .debug_macro   0x00000000       0x1c ./src/pi7/comunicacao_pic/comunicacao_pic.o
 .debug_macro   0x00000000       0x52 ./src/pi7/comunicacao_pic/comunicacao_pic.o
 .debug_macro   0x00000000       0x40 ./src/pi7/comunicacao_pic/comunicacao_pic.o
 .debug_macro   0x00000000       0x10 ./src/pi7/comunicacao_pic/comunicacao_pic.o
 .debug_macro   0x00000000       0x40 ./src/pi7/comunicacao_pic/comunicacao_pic.o
 .debug_macro   0x00000000       0xd7 ./src/pi7/comunicacao_pic/comunicacao_pic.o
 .debug_macro   0x00000000       0x16 ./src/pi7/comunicacao_pic/comunicacao_pic.o
 .debug_macro   0x00000000      0x189 ./src/pi7/comunicacao_pic/comunicacao_pic.o
 .debug_macro   0x00000000       0x82 ./src/pi7/comunicacao_pic/comunicacao_pic.o
 .debug_macro   0x00000000       0x34 ./src/pi7/comunicacao_pic/comunicacao_pic.o
 .debug_macro   0x00000000       0x1c ./src/pi7/comunicacao_pic/comunicacao_pic.o
 .debug_macro   0x00000000       0x22 ./src/pi7/comunicacao_pic/comunicacao_pic.o
 .debug_macro   0x00000000       0xfd ./src/pi7/comunicacao_pic/comunicacao_pic.o
 .debug_macro   0x00000000      0x1df ./src/pi7/comunicacao_pic/comunicacao_pic.o
 .debug_macro   0x00000000       0xc7 ./src/pi7/comunicacao_pic/comunicacao_pic.o
 .debug_macro   0x00000000       0x16 ./src/pi7/comunicacao_pic/comunicacao_pic.o
 .debug_macro   0x00000000      0x2d5 ./src/pi7/comunicacao_pic/comunicacao_pic.o
 .group         0x00000000        0x8 ./src/pi7/comunicacao_pc/modbus.o
 .group         0x00000000        0x8 ./src/pi7/comunicacao_pc/modbus.o
 .group         0x00000000        0x8 ./src/pi7/comunicacao_pc/modbus.o
 .group         0x00000000        0x8 ./src/pi7/comunicacao_pc/modbus.o
 .group         0x00000000        0x8 ./src/pi7/comunicacao_pc/modbus.o
 .group         0x00000000        0x8 ./src/pi7/comunicacao_pc/modbus.o
 .group         0x00000000        0x8 ./src/pi7/comunicacao_pc/modbus.o
 .group         0x00000000        0x8 ./src/pi7/comunicacao_pc/modbus.o
 .group         0x00000000        0x8 ./src/pi7/comunicacao_pc/modbus.o
 .group         0x00000000        0x8 ./src/pi7/comunicacao_pc/modbus.o
 .group         0x00000000        0x8 ./src/pi7/comunicacao_pc/modbus.o
 .group         0x00000000        0x8 ./src/pi7/comunicacao_pc/modbus.o
 .group         0x00000000        0x8 ./src/pi7/comunicacao_pc/modbus.o
 .group         0x00000000        0x8 ./src/pi7/comunicacao_pc/modbus.o
 .group         0x00000000        0x8 ./src/pi7/comunicacao_pc/modbus.o
 .group         0x00000000        0x8 ./src/pi7/comunicacao_pc/modbus.o
 .group         0x00000000        0x8 ./src/pi7/comunicacao_pc/modbus.o
 .group         0x00000000        0x8 ./src/pi7/comunicacao_pc/modbus.o
 .group         0x00000000        0x8 ./src/pi7/comunicacao_pc/modbus.o
 .group         0x00000000        0x8 ./src/pi7/comunicacao_pc/modbus.o
 .group         0x00000000        0x8 ./src/pi7/comunicacao_pc/modbus.o
 .group         0x00000000        0x8 ./src/pi7/comunicacao_pc/modbus.o
 .group         0x00000000        0x8 ./src/pi7/comunicacao_pc/modbus.o
 .group         0x00000000        0x8 ./src/pi7/comunicacao_pc/modbus.o
 .group         0x00000000        0x8 ./src/pi7/comunicacao_pc/modbus.o
 .group         0x00000000        0x8 ./src/pi7/comunicacao_pc/modbus.o
 .group         0x00000000        0x8 ./src/pi7/comunicacao_pc/modbus.o
 .group         0x00000000        0x8 ./src/pi7/comunicacao_pc/modbus.o
 .group         0x00000000        0x8 ./src/pi7/comunicacao_pc/modbus.o
 .group         0x00000000        0x8 ./src/pi7/comunicacao_pc/modbus.o
 .group         0x00000000        0x8 ./src/pi7/comunicacao_pc/modbus.o
 .group         0x00000000        0x8 ./src/pi7/comunicacao_pc/modbus.o
 .group         0x00000000        0x8 ./src/pi7/comunicacao_pc/modbus.o
 .group         0x00000000        0x8 ./src/pi7/comunicacao_pc/modbus.o
 .group         0x00000000        0x8 ./src/pi7/comunicacao_pc/modbus.o
 .group         0x00000000        0x8 ./src/pi7/comunicacao_pc/modbus.o
 .group         0x00000000        0x8 ./src/pi7/comunicacao_pc/modbus.o
 .group         0x00000000        0x8 ./src/pi7/comunicacao_pc/modbus.o
 .group         0x00000000        0x8 ./src/pi7/comunicacao_pc/modbus.o
 .group         0x00000000        0x8 ./src/pi7/comunicacao_pc/modbus.o
 .group         0x00000000        0x8 ./src/pi7/comunicacao_pc/modbus.o
 .group         0x00000000        0x8 ./src/pi7/comunicacao_pc/modbus.o
 .group         0x00000000        0x8 ./src/pi7/comunicacao_pc/modbus.o
 .group         0x00000000        0x8 ./src/pi7/comunicacao_pc/modbus.o
 .group         0x00000000        0x8 ./src/pi7/comunicacao_pc/modbus.o
 .debug_macro   0x00000000      0x89e ./src/pi7/comunicacao_pc/modbus.o
 .debug_macro   0x00000000      0x174 ./src/pi7/comunicacao_pc/modbus.o
 .debug_macro   0x00000000       0x46 ./src/pi7/comunicacao_pc/modbus.o
 .debug_macro   0x00000000      0x137 ./src/pi7/comunicacao_pc/modbus.o
 .debug_macro   0x00000000       0xa3 ./src/pi7/comunicacao_pc/modbus.o
 .debug_macro   0x00000000       0x12 ./src/pi7/comunicacao_pc/modbus.o
 .debug_macro   0x00000000       0x1f ./src/pi7/comunicacao_pc/modbus.o
 .debug_macro   0x00000000      0x17e ./src/pi7/comunicacao_pc/modbus.o
 .debug_macro   0x00000000       0x6a ./src/pi7/comunicacao_pc/modbus.o
 .debug_macro   0x00000000       0x22 ./src/pi7/comunicacao_pc/modbus.o
 .debug_macro   0x00000000       0x4c ./src/pi7/comunicacao_pc/modbus.o
 .debug_macro   0x00000000       0x8d ./src/pi7/comunicacao_pc/modbus.o
 .debug_macro   0x00000000       0x35 ./src/pi7/comunicacao_pc/modbus.o
 .debug_macro   0x00000000       0x9c ./src/pi7/comunicacao_pc/modbus.o
 .debug_macro   0x00000000       0x16 ./src/pi7/comunicacao_pc/modbus.o
 .debug_macro   0x00000000       0x4a ./src/pi7/comunicacao_pc/modbus.o
 .debug_macro   0x00000000       0x35 ./src/pi7/comunicacao_pc/modbus.o
 .debug_macro   0x00000000      0x30d ./src/pi7/comunicacao_pc/modbus.o
 .debug_macro   0x00000000       0x10 ./src/pi7/comunicacao_pc/modbus.o
 .debug_macro   0x00000000       0x52 ./src/pi7/comunicacao_pc/modbus.o
 .debug_macro   0x00000000       0x1f ./src/pi7/comunicacao_pc/modbus.o
 .debug_macro   0x00000000       0x43 ./src/pi7/comunicacao_pc/modbus.o
 .debug_macro   0x00000000       0x20 ./src/pi7/comunicacao_pc/modbus.o
 .debug_macro   0x00000000      0x187 ./src/pi7/comunicacao_pc/modbus.o
 .debug_macro   0x00000000       0x10 ./src/pi7/comunicacao_pc/modbus.o
 .debug_macro   0x00000000       0x5e ./src/pi7/comunicacao_pc/modbus.o
 .debug_macro   0x00000000       0x1c ./src/pi7/comunicacao_pc/modbus.o
 .debug_macro   0x00000000       0x52 ./src/pi7/comunicacao_pc/modbus.o
 .debug_macro   0x00000000       0x40 ./src/pi7/comunicacao_pc/modbus.o
 .debug_macro   0x00000000       0x10 ./src/pi7/comunicacao_pc/modbus.o
 .debug_macro   0x00000000       0x40 ./src/pi7/comunicacao_pc/modbus.o
 .debug_macro   0x00000000       0xd7 ./src/pi7/comunicacao_pc/modbus.o
 .debug_macro   0x00000000       0x16 ./src/pi7/comunicacao_pc/modbus.o
 .debug_macro   0x00000000      0x189 ./src/pi7/comunicacao_pc/modbus.o
 .debug_macro   0x00000000       0x82 ./src/pi7/comunicacao_pc/modbus.o
 .debug_macro   0x00000000       0x34 ./src/pi7/comunicacao_pc/modbus.o
 .debug_macro   0x00000000       0x1c ./src/pi7/comunicacao_pc/modbus.o
 .debug_macro   0x00000000       0x22 ./src/pi7/comunicacao_pc/modbus.o
 .debug_macro   0x00000000       0xfd ./src/pi7/comunicacao_pc/modbus.o
 .debug_macro   0x00000000      0x1df ./src/pi7/comunicacao_pc/modbus.o
 .debug_macro   0x00000000       0xc7 ./src/pi7/comunicacao_pc/modbus.o
 .debug_macro   0x00000000       0x16 ./src/pi7/comunicacao_pc/modbus.o
 .debug_macro   0x00000000      0x2d5 ./src/pi7/comunicacao_pc/modbus.o
 .debug_macro   0x00000000       0x70 ./src/pi7/comunicacao_pc/modbus.o
 .debug_macro   0x00000000       0x34 ./src/pi7/comunicacao_pc/modbus.o
 .group         0x00000000        0x8 ./src/drivers/uart/uart.o
 .group         0x00000000        0x8 ./src/drivers/uart/uart.o
 .group         0x00000000        0x8 ./src/drivers/uart/uart.o
 .group         0x00000000        0x8 ./src/drivers/uart/uart.o
 .group         0x00000000        0x8 ./src/drivers/uart/uart.o
 .group         0x00000000        0x8 ./src/drivers/uart/uart.o
 .group         0x00000000        0x8 ./src/drivers/uart/uart.o
 .group         0x00000000        0x8 ./src/drivers/uart/uart.o
 .group         0x00000000        0x8 ./src/drivers/uart/uart.o
 .group         0x00000000        0x8 ./src/drivers/uart/uart.o
 .group         0x00000000        0x8 ./src/drivers/uart/uart.o
 .group         0x00000000        0x8 ./src/drivers/uart/uart.o
 .group         0x00000000        0x8 ./src/drivers/uart/uart.o
 .group         0x00000000        0x8 ./src/drivers/uart/uart.o
 .group         0x00000000        0x8 ./src/drivers/uart/uart.o
 .group         0x00000000        0x8 ./src/drivers/uart/uart.o
 .group         0x00000000        0x8 ./src/drivers/uart/uart.o
 .group         0x00000000        0x8 ./src/drivers/uart/uart.o
 .group         0x00000000        0x8 ./src/drivers/uart/uart.o
 .group         0x00000000        0x8 ./src/drivers/uart/uart.o
 .group         0x00000000        0x8 ./src/drivers/uart/uart.o
 .debug_macro   0x00000000      0x89e ./src/drivers/uart/uart.o
 .debug_macro   0x00000000       0x22 ./src/drivers/uart/uart.o
 .debug_macro   0x00000000       0x22 ./src/drivers/uart/uart.o
 .debug_macro   0x00000000       0xfd ./src/drivers/uart/uart.o
 .debug_macro   0x00000000       0x5e ./src/drivers/uart/uart.o
 .debug_macro   0x00000000      0x1df ./src/drivers/uart/uart.o
 .debug_macro   0x00000000       0xc7 ./src/drivers/uart/uart.o
 .debug_macro   0x00000000       0x70 ./src/drivers/uart/uart.o
 .debug_macro   0x00000000      0x174 ./src/drivers/uart/uart.o
 .debug_macro   0x00000000       0x46 ./src/drivers/uart/uart.o
 .debug_macro   0x00000000       0xa3 ./src/drivers/uart/uart.o
 .debug_macro   0x00000000       0x12 ./src/drivers/uart/uart.o
 .debug_macro   0x00000000       0x1f ./src/drivers/uart/uart.o
 .debug_macro   0x00000000      0x17e ./src/drivers/uart/uart.o
 .debug_macro   0x00000000       0x6a ./src/drivers/uart/uart.o
 .group         0x00000000        0x8 ./src/drivers/pwm/pwm.o
 .group         0x00000000        0x8 ./src/drivers/pwm/pwm.o
 .group         0x00000000        0x8 ./src/drivers/pwm/pwm.o
 .group         0x00000000        0x8 ./src/drivers/pwm/pwm.o
 .group         0x00000000        0x8 ./src/drivers/pwm/pwm.o
 .group         0x00000000        0x8 ./src/drivers/pwm/pwm.o
 .group         0x00000000        0x8 ./src/drivers/pwm/pwm.o
 .group         0x00000000        0x8 ./src/drivers/pwm/pwm.o
 .group         0x00000000        0x8 ./src/drivers/pwm/pwm.o
 .group         0x00000000        0x8 ./src/drivers/pwm/pwm.o
 .group         0x00000000        0x8 ./src/drivers/pwm/pwm.o
 .group         0x00000000        0x8 ./src/drivers/pwm/pwm.o
 .group         0x00000000        0x8 ./src/drivers/pwm/pwm.o
 .debug_macro   0x00000000      0x89e ./src/drivers/pwm/pwm.o
 .debug_macro   0x00000000       0x1c ./src/drivers/pwm/pwm.o
 .debug_macro   0x00000000       0x22 ./src/drivers/pwm/pwm.o
 .debug_macro   0x00000000       0x22 ./src/drivers/pwm/pwm.o
 .debug_macro   0x00000000       0x87 ./src/drivers/pwm/pwm.o
 .debug_macro   0x00000000       0x44 ./src/drivers/pwm/pwm.o
 .debug_macro   0x00000000       0xfd ./src/drivers/pwm/pwm.o
 .debug_macro   0x00000000       0x5e ./src/drivers/pwm/pwm.o
 .debug_macro   0x00000000      0x1df ./src/drivers/pwm/pwm.o
 .debug_macro   0x00000000       0xc7 ./src/drivers/pwm/pwm.o
 .debug_macro   0x00000000       0x1c ./src/drivers/pwm/pwm.o
 .debug_macro   0x00000000      0x2d5 ./src/drivers/pwm/pwm.o
 .group         0x00000000        0x8 ./src/drivers/ledonboard/leds.o
 .group         0x00000000        0x8 ./src/drivers/ledonboard/leds.o
 .group         0x00000000        0x8 ./src/drivers/ledonboard/leds.o
 .group         0x00000000        0x8 ./src/drivers/ledonboard/leds.o
 .group         0x00000000        0x8 ./src/drivers/ledonboard/leds.o
 .group         0x00000000        0x8 ./src/drivers/ledonboard/leds.o
 .group         0x00000000        0x8 ./src/drivers/ledonboard/leds.o
 .group         0x00000000        0x8 ./src/drivers/ledonboard/leds.o
 .group         0x00000000        0x8 ./src/drivers/ledonboard/leds.o
 .group         0x00000000        0x8 ./src/drivers/ledonboard/leds.o
 .group         0x00000000        0x8 ./src/drivers/ledonboard/leds.o
 .group         0x00000000        0x8 ./src/drivers/ledonboard/leds.o
 .debug_macro   0x00000000      0x89e ./src/drivers/ledonboard/leds.o
 .debug_macro   0x00000000       0x1c ./src/drivers/ledonboard/leds.o
 .debug_macro   0x00000000       0x22 ./src/drivers/ledonboard/leds.o
 .debug_macro   0x00000000       0x22 ./src/drivers/ledonboard/leds.o
 .debug_macro   0x00000000       0x87 ./src/drivers/ledonboard/leds.o
 .debug_macro   0x00000000       0x44 ./src/drivers/ledonboard/leds.o
 .debug_macro   0x00000000       0xfd ./src/drivers/ledonboard/leds.o
 .debug_macro   0x00000000       0x5e ./src/drivers/ledonboard/leds.o
 .debug_macro   0x00000000      0x1df ./src/drivers/ledonboard/leds.o
 .debug_macro   0x00000000       0xc7 ./src/drivers/ledonboard/leds.o
 .debug_macro   0x00000000       0x1c ./src/drivers/ledonboard/leds.o
 .debug_macro   0x00000000      0x2d5 ./src/drivers/ledonboard/leds.o
 .group         0x00000000        0x8 ./src/drivers/console/alloc.o
 .group         0x00000000        0x8 ./src/drivers/console/alloc.o
 .group         0x00000000        0x8 ./src/drivers/console/alloc.o
 .group         0x00000000        0x8 ./src/drivers/console/alloc.o
 .group         0x00000000        0x8 ./src/drivers/console/alloc.o
 .group         0x00000000        0x8 ./src/drivers/console/alloc.o
 .group         0x00000000        0x8 ./src/drivers/console/alloc.o
 .group         0x00000000        0x8 ./src/drivers/console/alloc.o
 .group         0x00000000        0x8 ./src/drivers/console/alloc.o
 .group         0x00000000        0x8 ./src/drivers/console/alloc.o
 .group         0x00000000        0x8 ./src/drivers/console/alloc.o
 .group         0x00000000        0x8 ./src/drivers/console/alloc.o
 .group         0x00000000        0x8 ./src/drivers/console/alloc.o
 .group         0x00000000        0x8 ./src/drivers/console/alloc.o
 .group         0x00000000        0x8 ./src/drivers/console/alloc.o
 .group         0x00000000        0x8 ./src/drivers/console/alloc.o
 .group         0x00000000        0x8 ./src/drivers/console/alloc.o
 .group         0x00000000        0x8 ./src/drivers/console/alloc.o
 .group         0x00000000        0x8 ./src/drivers/console/alloc.o
 .group         0x00000000        0x8 ./src/drivers/console/alloc.o
 .group         0x00000000        0x8 ./src/drivers/console/alloc.o
 .group         0x00000000        0x8 ./src/drivers/console/alloc.o
 .group         0x00000000        0x8 ./src/drivers/console/alloc.o
 .group         0x00000000        0x8 ./src/drivers/console/alloc.o
 .group         0x00000000        0x8 ./src/drivers/console/alloc.o
 .group         0x00000000        0x8 ./src/drivers/console/alloc.o
 .debug_macro   0x00000000      0x89e ./src/drivers/console/alloc.o
 .debug_macro   0x00000000       0x22 ./src/drivers/console/alloc.o
 .debug_macro   0x00000000       0x4c ./src/drivers/console/alloc.o
 .debug_macro   0x00000000       0x8d ./src/drivers/console/alloc.o
 .debug_macro   0x00000000       0x35 ./src/drivers/console/alloc.o
 .debug_macro   0x00000000       0x9c ./src/drivers/console/alloc.o
 .debug_macro   0x00000000       0x4a ./src/drivers/console/alloc.o
 .debug_macro   0x00000000       0x52 ./src/drivers/console/alloc.o
 .debug_macro   0x00000000       0x1f ./src/drivers/console/alloc.o
 .debug_macro   0x00000000       0x43 ./src/drivers/console/alloc.o
 .debug_macro   0x00000000       0x20 ./src/drivers/console/alloc.o
 .debug_macro   0x00000000      0x187 ./src/drivers/console/alloc.o
 .debug_macro   0x00000000      0x30d ./src/drivers/console/alloc.o
 .debug_macro   0x00000000       0x46 ./src/drivers/console/alloc.o
 .debug_macro   0x00000000      0x137 ./src/drivers/console/alloc.o
 .debug_macro   0x00000000       0xa3 ./src/drivers/console/alloc.o
 .debug_macro   0x00000000       0x12 ./src/drivers/console/alloc.o
 .debug_macro   0x00000000       0x1f ./src/drivers/console/alloc.o
 .debug_macro   0x00000000      0x17e ./src/drivers/console/alloc.o
 .group         0x00000000        0x8 ./src/drivers/console/basic_io.o
 .group         0x00000000        0x8 ./src/drivers/console/basic_io.o
 .group         0x00000000        0x8 ./src/drivers/console/basic_io.o
 .group         0x00000000        0x8 ./src/drivers/console/basic_io.o
 .group         0x00000000        0x8 ./src/drivers/console/basic_io.o
 .group         0x00000000        0x8 ./src/drivers/console/basic_io.o
 .group         0x00000000        0x8 ./src/drivers/console/basic_io.o
 .group         0x00000000        0x8 ./src/drivers/console/basic_io.o
 .group         0x00000000        0x8 ./src/drivers/console/basic_io.o
 .group         0x00000000        0x8 ./src/drivers/console/basic_io.o
 .group         0x00000000        0x8 ./src/drivers/console/basic_io.o
 .group         0x00000000        0x8 ./src/drivers/console/basic_io.o
 .group         0x00000000        0x8 ./src/drivers/console/basic_io.o
 .group         0x00000000        0x8 ./src/drivers/console/basic_io.o
 .group         0x00000000        0x8 ./src/drivers/console/basic_io.o
 .group         0x00000000        0x8 ./src/drivers/console/basic_io.o
 .group         0x00000000        0x8 ./src/drivers/console/basic_io.o
 .group         0x00000000        0x8 ./src/drivers/console/basic_io.o
 .group         0x00000000        0x8 ./src/drivers/console/basic_io.o
 .group         0x00000000        0x8 ./src/drivers/console/basic_io.o
 .group         0x00000000        0x8 ./src/drivers/console/basic_io.o
 .group         0x00000000        0x8 ./src/drivers/console/basic_io.o
 .group         0x00000000        0x8 ./src/drivers/console/basic_io.o
 .group         0x00000000        0x8 ./src/drivers/console/basic_io.o
 .group         0x00000000        0x8 ./src/drivers/console/basic_io.o
 .group         0x00000000        0x8 ./src/drivers/console/basic_io.o
 .group         0x00000000        0x8 ./src/drivers/console/basic_io.o
 .group         0x00000000        0x8 ./src/drivers/console/basic_io.o
 .group         0x00000000        0x8 ./src/drivers/console/basic_io.o
 .group         0x00000000        0x8 ./src/drivers/console/basic_io.o
 .group         0x00000000        0x8 ./src/drivers/console/basic_io.o
 .group         0x00000000        0x8 ./src/drivers/console/basic_io.o
 .group         0x00000000        0x8 ./src/drivers/console/basic_io.o
 .group         0x00000000        0x8 ./src/drivers/console/basic_io.o
 .group         0x00000000        0x8 ./src/drivers/console/basic_io.o
 .debug_macro   0x00000000      0x89e ./src/drivers/console/basic_io.o
 .debug_macro   0x00000000       0x22 ./src/drivers/console/basic_io.o
 .debug_macro   0x00000000       0x4c ./src/drivers/console/basic_io.o
 .debug_macro   0x00000000       0x8d ./src/drivers/console/basic_io.o
 .debug_macro   0x00000000       0x35 ./src/drivers/console/basic_io.o
 .debug_macro   0x00000000       0x9c ./src/drivers/console/basic_io.o
 .debug_macro   0x00000000       0x16 ./src/drivers/console/basic_io.o
 .debug_macro   0x00000000       0x4a ./src/drivers/console/basic_io.o
 .debug_macro   0x00000000       0x97 ./src/drivers/console/basic_io.o
 .debug_macro   0x00000000      0x30d ./src/drivers/console/basic_io.o
 .debug_macro   0x00000000       0xfd ./src/drivers/console/basic_io.o
 .debug_macro   0x00000000       0x10 ./src/drivers/console/basic_io.o
 .debug_macro   0x00000000       0x52 ./src/drivers/console/basic_io.o
 .debug_macro   0x00000000       0x1f ./src/drivers/console/basic_io.o
 .debug_macro   0x00000000       0x43 ./src/drivers/console/basic_io.o
 .debug_macro   0x00000000       0x20 ./src/drivers/console/basic_io.o
 .debug_macro   0x00000000      0x187 ./src/drivers/console/basic_io.o
 .debug_macro   0x00000000       0x10 ./src/drivers/console/basic_io.o
 .debug_macro   0x00000000       0x5e ./src/drivers/console/basic_io.o
 .debug_macro   0x00000000       0x1c ./src/drivers/console/basic_io.o
 .debug_macro   0x00000000       0x52 ./src/drivers/console/basic_io.o
 .debug_macro   0x00000000       0x40 ./src/drivers/console/basic_io.o
 .debug_macro   0x00000000       0x10 ./src/drivers/console/basic_io.o
 .debug_macro   0x00000000       0x40 ./src/drivers/console/basic_io.o
 .debug_macro   0x00000000       0xd7 ./src/drivers/console/basic_io.o
 .debug_macro   0x00000000       0x16 ./src/drivers/console/basic_io.o
 .debug_macro   0x00000000      0x189 ./src/drivers/console/basic_io.o
 .debug_macro   0x00000000       0x46 ./src/drivers/console/basic_io.o
 .debug_macro   0x00000000      0x137 ./src/drivers/console/basic_io.o
 .debug_macro   0x00000000       0xa3 ./src/drivers/console/basic_io.o
 .debug_macro   0x00000000       0x12 ./src/drivers/console/basic_io.o
 .debug_macro   0x00000000       0x1f ./src/drivers/console/basic_io.o
 .debug_macro   0x00000000      0x17e ./src/drivers/console/basic_io.o
 .debug_macro   0x00000000       0x49 ./src/drivers/console/basic_io.o
 .debug_macro   0x00000000       0x57 ./src/drivers/console/basic_io.o
 .group         0x00000000        0x8 ./src/drivers/console/consoleprint.o
 .group         0x00000000        0x8 ./src/drivers/console/consoleprint.o
 .group         0x00000000        0x8 ./src/drivers/console/consoleprint.o
 .group         0x00000000        0x8 ./src/drivers/console/consoleprint.o
 .group         0x00000000        0x8 ./src/drivers/console/consoleprint.o
 .group         0x00000000        0x8 ./src/drivers/console/consoleprint.o
 .group         0x00000000        0x8 ./src/drivers/console/consoleprint.o
 .group         0x00000000        0x8 ./src/drivers/console/consoleprint.o
 .group         0x00000000        0x8 ./src/drivers/console/consoleprint.o
 .group         0x00000000        0x8 ./src/drivers/console/consoleprint.o
 .group         0x00000000        0x8 ./src/drivers/console/consoleprint.o
 .group         0x00000000        0x8 ./src/drivers/console/consoleprint.o
 .group         0x00000000        0x8 ./src/drivers/console/consoleprint.o
 .group         0x00000000        0x8 ./src/drivers/console/consoleprint.o
 .group         0x00000000        0x8 ./src/drivers/console/consoleprint.o
 .group         0x00000000        0x8 ./src/drivers/console/consoleprint.o
 .group         0x00000000        0x8 ./src/drivers/console/consoleprint.o
 .group         0x00000000        0x8 ./src/drivers/console/consoleprint.o
 .group         0x00000000        0x8 ./src/drivers/console/consoleprint.o
 .group         0x00000000        0x8 ./src/drivers/console/consoleprint.o
 .group         0x00000000        0x8 ./src/drivers/console/consoleprint.o
 .group         0x00000000        0x8 ./src/drivers/console/consoleprint.o
 .group         0x00000000        0x8 ./src/drivers/console/consoleprint.o
 .group         0x00000000        0x8 ./src/drivers/console/consoleprint.o
 .group         0x00000000        0x8 ./src/drivers/console/consoleprint.o
 .group         0x00000000        0x8 ./src/drivers/console/consoleprint.o
 .group         0x00000000        0x8 ./src/drivers/console/consoleprint.o
 .group         0x00000000        0x8 ./src/drivers/console/consoleprint.o
 .group         0x00000000        0x8 ./src/drivers/console/consoleprint.o
 .debug_macro   0x00000000      0x89e ./src/drivers/console/consoleprint.o
 .debug_macro   0x00000000       0x22 ./src/drivers/console/consoleprint.o
 .debug_macro   0x00000000       0x4c ./src/drivers/console/consoleprint.o
 .debug_macro   0x00000000       0x8d ./src/drivers/console/consoleprint.o
 .debug_macro   0x00000000       0x35 ./src/drivers/console/consoleprint.o
 .debug_macro   0x00000000       0x9c ./src/drivers/console/consoleprint.o
 .debug_macro   0x00000000       0x16 ./src/drivers/console/consoleprint.o
 .debug_macro   0x00000000       0x4a ./src/drivers/console/consoleprint.o
 .debug_macro   0x00000000       0x97 ./src/drivers/console/consoleprint.o
 .debug_macro   0x00000000      0x30d ./src/drivers/console/consoleprint.o
 .debug_macro   0x00000000       0xfd ./src/drivers/console/consoleprint.o
 .debug_macro   0x00000000       0x10 ./src/drivers/console/consoleprint.o
 .debug_macro   0x00000000       0x52 ./src/drivers/console/consoleprint.o
 .debug_macro   0x00000000       0x1f ./src/drivers/console/consoleprint.o
 .debug_macro   0x00000000       0x43 ./src/drivers/console/consoleprint.o
 .debug_macro   0x00000000       0x20 ./src/drivers/console/consoleprint.o
 .debug_macro   0x00000000      0x187 ./src/drivers/console/consoleprint.o
 .debug_macro   0x00000000       0x10 ./src/drivers/console/consoleprint.o
 .debug_macro   0x00000000       0x5e ./src/drivers/console/consoleprint.o
 .debug_macro   0x00000000       0x1c ./src/drivers/console/consoleprint.o
 .debug_macro   0x00000000       0x52 ./src/drivers/console/consoleprint.o
 .debug_macro   0x00000000       0x40 ./src/drivers/console/consoleprint.o
 .debug_macro   0x00000000       0x10 ./src/drivers/console/consoleprint.o
 .debug_macro   0x00000000       0x40 ./src/drivers/console/consoleprint.o
 .debug_macro   0x00000000       0xd7 ./src/drivers/console/consoleprint.o
 .debug_macro   0x00000000       0x16 ./src/drivers/console/consoleprint.o
 .debug_macro   0x00000000      0x189 ./src/drivers/console/consoleprint.o
 .debug_macro   0x00000000       0x35 ./src/drivers/console/consoleprint.o
 .group         0x00000000        0x8 ./src/cr_startup_lpc17.o
 .group         0x00000000        0x8 ./src/cr_startup_lpc17.o
 .group         0x00000000        0x8 ./src/cr_startup_lpc17.o
 .group         0x00000000        0x8 ./src/cr_startup_lpc17.o
 .group         0x00000000        0x8 ./src/cr_startup_lpc17.o
 .group         0x00000000        0x8 ./src/cr_startup_lpc17.o
 .group         0x00000000        0x8 ./src/cr_startup_lpc17.o
 .group         0x00000000        0x8 ./src/cr_startup_lpc17.o
 .debug_macro   0x00000000      0x89e ./src/cr_startup_lpc17.o
 .debug_macro   0x00000000       0x22 ./src/cr_startup_lpc17.o
 .debug_macro   0x00000000       0x87 ./src/cr_startup_lpc17.o
 .debug_macro   0x00000000       0x44 ./src/cr_startup_lpc17.o
 .debug_macro   0x00000000       0xfd ./src/cr_startup_lpc17.o
 .debug_macro   0x00000000       0x5e ./src/cr_startup_lpc17.o
 .debug_macro   0x00000000      0x1df ./src/cr_startup_lpc17.o
 .debug_macro   0x00000000       0x1c ./src/cr_startup_lpc17.o
 .group         0x00000000        0x8 ./src/main.o
 .group         0x00000000        0x8 ./src/main.o
 .group         0x00000000        0x8 ./src/main.o
 .group         0x00000000        0x8 ./src/main.o
 .group         0x00000000        0x8 ./src/main.o
 .group         0x00000000        0x8 ./src/main.o
 .group         0x00000000        0x8 ./src/main.o
 .group         0x00000000        0x8 ./src/main.o
 .group         0x00000000        0x8 ./src/main.o
 .group         0x00000000        0x8 ./src/main.o
 .group         0x00000000        0x8 ./src/main.o
 .group         0x00000000        0x8 ./src/main.o
 .group         0x00000000        0x8 ./src/main.o
 .group         0x00000000        0x8 ./src/main.o
 .group         0x00000000        0x8 ./src/main.o
 .group         0x00000000        0x8 ./src/main.o
 .group         0x00000000        0x8 ./src/main.o
 .group         0x00000000        0x8 ./src/main.o
 .group         0x00000000        0x8 ./src/main.o
 .group         0x00000000        0x8 ./src/main.o
 .group         0x00000000        0x8 ./src/main.o
 .group         0x00000000        0x8 ./src/main.o
 .group         0x00000000        0x8 ./src/main.o
 .group         0x00000000        0x8 ./src/main.o
 .group         0x00000000        0x8 ./src/main.o
 .group         0x00000000        0x8 ./src/main.o
 .group         0x00000000        0x8 ./src/main.o
 .group         0x00000000        0x8 ./src/main.o
 .group         0x00000000        0x8 ./src/main.o
 .group         0x00000000        0x8 ./src/main.o
 .group         0x00000000        0x8 ./src/main.o
 .group         0x00000000        0x8 ./src/main.o
 .group         0x00000000        0x8 ./src/main.o
 .group         0x00000000        0x8 ./src/main.o
 .group         0x00000000        0x8 ./src/main.o
 .group         0x00000000        0x8 ./src/main.o
 .group         0x00000000        0x8 ./src/main.o
 .group         0x00000000        0x8 ./src/main.o
 .group         0x00000000        0x8 ./src/main.o
 .group         0x00000000        0x8 ./src/main.o
 .group         0x00000000        0x8 ./src/main.o
 .group         0x00000000        0x8 ./src/main.o
 .group         0x00000000        0x8 ./src/main.o
 .group         0x00000000        0x8 ./src/main.o
 .group         0x00000000        0x8 ./src/main.o
 .group         0x00000000        0x8 ./src/main.o
 .group         0x00000000        0x8 ./src/main.o
 .group         0x00000000        0x8 ./src/main.o
 .group         0x00000000        0x8 ./src/main.o
 .debug_macro   0x00000000      0x89e ./src/main.o
 .debug_macro   0x00000000      0x174 ./src/main.o
 .debug_macro   0x00000000       0x46 ./src/main.o
 .debug_macro   0x00000000      0x137 ./src/main.o
 .debug_macro   0x00000000       0xa3 ./src/main.o
 .debug_macro   0x00000000       0x12 ./src/main.o
 .debug_macro   0x00000000       0x1f ./src/main.o
 .debug_macro   0x00000000      0x17e ./src/main.o
 .debug_macro   0x00000000       0x49 ./src/main.o
 .debug_macro   0x00000000       0x57 ./src/main.o
 .debug_macro   0x00000000       0x6a ./src/main.o
 .debug_macro   0x00000000       0x22 ./src/main.o
 .debug_macro   0x00000000       0x4c ./src/main.o
 .debug_macro   0x00000000       0x8d ./src/main.o
 .debug_macro   0x00000000       0x35 ./src/main.o
 .debug_macro   0x00000000       0x9c ./src/main.o
 .debug_macro   0x00000000       0x16 ./src/main.o
 .debug_macro   0x00000000       0x4a ./src/main.o
 .debug_macro   0x00000000       0x35 ./src/main.o
 .debug_macro   0x00000000      0x30d ./src/main.o
 .debug_macro   0x00000000       0x10 ./src/main.o
 .debug_macro   0x00000000       0x52 ./src/main.o
 .debug_macro   0x00000000       0x1f ./src/main.o
 .debug_macro   0x00000000       0x43 ./src/main.o
 .debug_macro   0x00000000       0x20 ./src/main.o
 .debug_macro   0x00000000      0x187 ./src/main.o
 .debug_macro   0x00000000       0x10 ./src/main.o
 .debug_macro   0x00000000       0x5e ./src/main.o
 .debug_macro   0x00000000       0x1c ./src/main.o
 .debug_macro   0x00000000       0x52 ./src/main.o
 .debug_macro   0x00000000       0x40 ./src/main.o
 .debug_macro   0x00000000       0x10 ./src/main.o
 .debug_macro   0x00000000       0x40 ./src/main.o
 .debug_macro   0x00000000       0xd7 ./src/main.o
 .debug_macro   0x00000000       0x16 ./src/main.o
 .debug_macro   0x00000000      0x189 ./src/main.o
 .debug_macro   0x00000000       0x82 ./src/main.o
 .debug_macro   0x00000000       0x34 ./src/main.o
 .debug_macro   0x00000000       0x1c ./src/main.o
 .debug_macro   0x00000000       0x22 ./src/main.o
 .debug_macro   0x00000000       0xfd ./src/main.o
 .debug_macro   0x00000000      0x1df ./src/main.o
 .debug_macro   0x00000000       0xc7 ./src/main.o
 .debug_macro   0x00000000       0x16 ./src/main.o
 .debug_macro   0x00000000      0x2d5 ./src/main.o
 .debug_macro   0x00000000       0x70 ./src/main.o
 .debug_macro   0x00000000       0x34 ./src/main.o
 .debug_macro   0x00000000       0x34 ./src/main.o
 .group         0x00000000        0x8 ./FreeRTOS_src/croutine.o
 .group         0x00000000        0x8 ./FreeRTOS_src/croutine.o
 .group         0x00000000        0x8 ./FreeRTOS_src/croutine.o
 .group         0x00000000        0x8 ./FreeRTOS_src/croutine.o
 .group         0x00000000        0x8 ./FreeRTOS_src/croutine.o
 .group         0x00000000        0x8 ./FreeRTOS_src/croutine.o
 .group         0x00000000        0x8 ./FreeRTOS_src/croutine.o
 .group         0x00000000        0x8 ./FreeRTOS_src/croutine.o
 .group         0x00000000        0x8 ./FreeRTOS_src/croutine.o
 .group         0x00000000        0x8 ./FreeRTOS_src/croutine.o
 .group         0x00000000        0x8 ./FreeRTOS_src/croutine.o
 .debug_macro   0x00000000      0x89e ./FreeRTOS_src/croutine.o
 .debug_macro   0x00000000      0x174 ./FreeRTOS_src/croutine.o
 .debug_macro   0x00000000       0x46 ./FreeRTOS_src/croutine.o
 .debug_macro   0x00000000      0x137 ./FreeRTOS_src/croutine.o
 .debug_macro   0x00000000       0xa3 ./FreeRTOS_src/croutine.o
 .debug_macro   0x00000000       0x12 ./FreeRTOS_src/croutine.o
 .debug_macro   0x00000000       0x1f ./FreeRTOS_src/croutine.o
 .debug_macro   0x00000000      0x17e ./FreeRTOS_src/croutine.o
 .debug_macro   0x00000000       0x49 ./FreeRTOS_src/croutine.o
 .debug_macro   0x00000000       0x57 ./FreeRTOS_src/croutine.o
 .group         0x00000000        0x8 ./FreeRTOS_src/list.o
 .group         0x00000000        0x8 ./FreeRTOS_src/list.o
 .group         0x00000000        0x8 ./FreeRTOS_src/list.o
 .group         0x00000000        0x8 ./FreeRTOS_src/list.o
 .group         0x00000000        0x8 ./FreeRTOS_src/list.o
 .group         0x00000000        0x8 ./FreeRTOS_src/list.o
 .group         0x00000000        0x8 ./FreeRTOS_src/list.o
 .group         0x00000000        0x8 ./FreeRTOS_src/list.o
 .group         0x00000000        0x8 ./FreeRTOS_src/list.o
 .group         0x00000000        0x8 ./FreeRTOS_src/list.o
 .group         0x00000000        0x8 ./FreeRTOS_src/list.o
 .group         0x00000000        0x8 ./FreeRTOS_src/list.o
 .group         0x00000000        0x8 ./FreeRTOS_src/list.o
 .group         0x00000000        0x8 ./FreeRTOS_src/list.o
 .group         0x00000000        0x8 ./FreeRTOS_src/list.o
 .group         0x00000000        0x8 ./FreeRTOS_src/list.o
 .group         0x00000000        0x8 ./FreeRTOS_src/list.o
 .group         0x00000000        0x8 ./FreeRTOS_src/list.o
 .group         0x00000000        0x8 ./FreeRTOS_src/list.o
 .group         0x00000000        0x8 ./FreeRTOS_src/list.o
 .group         0x00000000        0x8 ./FreeRTOS_src/list.o
 .group         0x00000000        0x8 ./FreeRTOS_src/list.o
 .group         0x00000000        0x8 ./FreeRTOS_src/list.o
 .group         0x00000000        0x8 ./FreeRTOS_src/list.o
 .group         0x00000000        0x8 ./FreeRTOS_src/list.o
 .debug_macro   0x00000000      0x89e ./FreeRTOS_src/list.o
 .debug_macro   0x00000000       0x22 ./FreeRTOS_src/list.o
 .debug_macro   0x00000000       0x4c ./FreeRTOS_src/list.o
 .debug_macro   0x00000000       0x8d ./FreeRTOS_src/list.o
 .debug_macro   0x00000000       0x35 ./FreeRTOS_src/list.o
 .debug_macro   0x00000000       0x9c ./FreeRTOS_src/list.o
 .debug_macro   0x00000000       0x16 ./FreeRTOS_src/list.o
 .debug_macro   0x00000000      0x10e ./FreeRTOS_src/list.o
 .debug_macro   0x00000000       0x8d ./FreeRTOS_src/list.o
 .debug_macro   0x00000000       0x4a ./FreeRTOS_src/list.o
 .debug_macro   0x00000000       0x52 ./FreeRTOS_src/list.o
 .debug_macro   0x00000000       0x1f ./FreeRTOS_src/list.o
 .debug_macro   0x00000000       0x43 ./FreeRTOS_src/list.o
 .debug_macro   0x00000000       0x20 ./FreeRTOS_src/list.o
 .debug_macro   0x00000000      0x187 ./FreeRTOS_src/list.o
 .debug_macro   0x00000000      0x30d ./FreeRTOS_src/list.o
 .debug_macro   0x00000000       0x16 ./FreeRTOS_src/list.o
 .debug_macro   0x00000000       0x29 ./FreeRTOS_src/list.o
 .debug_macro   0x00000000       0x46 ./FreeRTOS_src/list.o
 .debug_macro   0x00000000      0x137 ./FreeRTOS_src/list.o
 .debug_macro   0x00000000       0xa3 ./FreeRTOS_src/list.o
 .debug_macro   0x00000000       0x12 ./FreeRTOS_src/list.o
 .debug_macro   0x00000000       0x1f ./FreeRTOS_src/list.o
 .debug_macro   0x00000000      0x17e ./FreeRTOS_src/list.o
 .debug_macro   0x00000000       0x49 ./FreeRTOS_src/list.o
 .group         0x00000000        0x8 ./FreeRTOS_src/queue.o
 .group         0x00000000        0x8 ./FreeRTOS_src/queue.o
 .group         0x00000000        0x8 ./FreeRTOS_src/queue.o
 .group         0x00000000        0x8 ./FreeRTOS_src/queue.o
 .group         0x00000000        0x8 ./FreeRTOS_src/queue.o
 .group         0x00000000        0x8 ./FreeRTOS_src/queue.o
 .group         0x00000000        0x8 ./FreeRTOS_src/queue.o
 .group         0x00000000        0x8 ./FreeRTOS_src/queue.o
 .group         0x00000000        0x8 ./FreeRTOS_src/queue.o
 .group         0x00000000        0x8 ./FreeRTOS_src/queue.o
 .group         0x00000000        0x8 ./FreeRTOS_src/queue.o
 .group         0x00000000        0x8 ./FreeRTOS_src/queue.o
 .group         0x00000000        0x8 ./FreeRTOS_src/queue.o
 .group         0x00000000        0x8 ./FreeRTOS_src/queue.o
 .group         0x00000000        0x8 ./FreeRTOS_src/queue.o
 .group         0x00000000        0x8 ./FreeRTOS_src/queue.o
 .group         0x00000000        0x8 ./FreeRTOS_src/queue.o
 .group         0x00000000        0x8 ./FreeRTOS_src/queue.o
 .group         0x00000000        0x8 ./FreeRTOS_src/queue.o
 .group         0x00000000        0x8 ./FreeRTOS_src/queue.o
 .group         0x00000000        0x8 ./FreeRTOS_src/queue.o
 .group         0x00000000        0x8 ./FreeRTOS_src/queue.o
 .group         0x00000000        0x8 ./FreeRTOS_src/queue.o
 .group         0x00000000        0x8 ./FreeRTOS_src/queue.o
 .group         0x00000000        0x8 ./FreeRTOS_src/queue.o
 .group         0x00000000        0x8 ./FreeRTOS_src/queue.o
 .group         0x00000000        0x8 ./FreeRTOS_src/queue.o
 .group         0x00000000        0x8 ./FreeRTOS_src/queue.o
 .group         0x00000000        0x8 ./FreeRTOS_src/queue.o
 .debug_macro   0x00000000      0x89e ./FreeRTOS_src/queue.o
 .debug_macro   0x00000000       0x22 ./FreeRTOS_src/queue.o
 .debug_macro   0x00000000       0x4c ./FreeRTOS_src/queue.o
 .debug_macro   0x00000000       0x8d ./FreeRTOS_src/queue.o
 .debug_macro   0x00000000       0x35 ./FreeRTOS_src/queue.o
 .debug_macro   0x00000000       0x9c ./FreeRTOS_src/queue.o
 .debug_macro   0x00000000       0x16 ./FreeRTOS_src/queue.o
 .debug_macro   0x00000000      0x10e ./FreeRTOS_src/queue.o
 .debug_macro   0x00000000       0x8d ./FreeRTOS_src/queue.o
 .debug_macro   0x00000000       0x4a ./FreeRTOS_src/queue.o
 .debug_macro   0x00000000       0x52 ./FreeRTOS_src/queue.o
 .debug_macro   0x00000000       0x1f ./FreeRTOS_src/queue.o
 .debug_macro   0x00000000       0x43 ./FreeRTOS_src/queue.o
 .debug_macro   0x00000000       0x20 ./FreeRTOS_src/queue.o
 .debug_macro   0x00000000      0x187 ./FreeRTOS_src/queue.o
 .debug_macro   0x00000000      0x30d ./FreeRTOS_src/queue.o
 .debug_macro   0x00000000       0x16 ./FreeRTOS_src/queue.o
 .debug_macro   0x00000000       0x29 ./FreeRTOS_src/queue.o
 .debug_macro   0x00000000       0x16 ./FreeRTOS_src/queue.o
 .debug_macro   0x00000000       0x35 ./FreeRTOS_src/queue.o
 .debug_macro   0x00000000       0x46 ./FreeRTOS_src/queue.o
 .debug_macro   0x00000000      0x137 ./FreeRTOS_src/queue.o
 .debug_macro   0x00000000       0xa3 ./FreeRTOS_src/queue.o
 .debug_macro   0x00000000       0x12 ./FreeRTOS_src/queue.o
 .debug_macro   0x00000000       0x1f ./FreeRTOS_src/queue.o
 .debug_macro   0x00000000      0x17e ./FreeRTOS_src/queue.o
 .debug_macro   0x00000000       0x49 ./FreeRTOS_src/queue.o
 .debug_macro   0x00000000       0x57 ./FreeRTOS_src/queue.o
 .debug_macro   0x00000000       0x49 ./FreeRTOS_src/queue.o
 .group         0x00000000        0x8 ./FreeRTOS_src/tasks.o
 .group         0x00000000        0x8 ./FreeRTOS_src/tasks.o
 .group         0x00000000        0x8 ./FreeRTOS_src/tasks.o
 .group         0x00000000        0x8 ./FreeRTOS_src/tasks.o
 .group         0x00000000        0x8 ./FreeRTOS_src/tasks.o
 .group         0x00000000        0x8 ./FreeRTOS_src/tasks.o
 .group         0x00000000        0x8 ./FreeRTOS_src/tasks.o
 .group         0x00000000        0x8 ./FreeRTOS_src/tasks.o
 .group         0x00000000        0x8 ./FreeRTOS_src/tasks.o
 .group         0x00000000        0x8 ./FreeRTOS_src/tasks.o
 .group         0x00000000        0x8 ./FreeRTOS_src/tasks.o
 .group         0x00000000        0x8 ./FreeRTOS_src/tasks.o
 .group         0x00000000        0x8 ./FreeRTOS_src/tasks.o
 .group         0x00000000        0x8 ./FreeRTOS_src/tasks.o
 .group         0x00000000        0x8 ./FreeRTOS_src/tasks.o
 .group         0x00000000        0x8 ./FreeRTOS_src/tasks.o
 .group         0x00000000        0x8 ./FreeRTOS_src/tasks.o
 .group         0x00000000        0x8 ./FreeRTOS_src/tasks.o
 .group         0x00000000        0x8 ./FreeRTOS_src/tasks.o
 .group         0x00000000        0x8 ./FreeRTOS_src/tasks.o
 .group         0x00000000        0x8 ./FreeRTOS_src/tasks.o
 .group         0x00000000        0x8 ./FreeRTOS_src/tasks.o
 .group         0x00000000        0x8 ./FreeRTOS_src/tasks.o
 .group         0x00000000        0x8 ./FreeRTOS_src/tasks.o
 .group         0x00000000        0x8 ./FreeRTOS_src/tasks.o
 .group         0x00000000        0x8 ./FreeRTOS_src/tasks.o
 .group         0x00000000        0x8 ./FreeRTOS_src/tasks.o
 .group         0x00000000        0x8 ./FreeRTOS_src/tasks.o
 .group         0x00000000        0x8 ./FreeRTOS_src/tasks.o
 .group         0x00000000        0x8 ./FreeRTOS_src/tasks.o
 .group         0x00000000        0x8 ./FreeRTOS_src/tasks.o
 .group         0x00000000        0x8 ./FreeRTOS_src/tasks.o
 .group         0x00000000        0x8 ./FreeRTOS_src/tasks.o
 .group         0x00000000        0x8 ./FreeRTOS_src/tasks.o
 .group         0x00000000        0x8 ./FreeRTOS_src/tasks.o
 .group         0x00000000        0x8 ./FreeRTOS_src/tasks.o
 .group         0x00000000        0x8 ./FreeRTOS_src/tasks.o
 .group         0x00000000        0x8 ./FreeRTOS_src/tasks.o
 .group         0x00000000        0x8 ./FreeRTOS_src/tasks.o
 .group         0x00000000        0x8 ./FreeRTOS_src/tasks.o
 .group         0x00000000        0x8 ./FreeRTOS_src/tasks.o
 .group         0x00000000        0x8 ./FreeRTOS_src/tasks.o
 .debug_macro   0x00000000      0x89e ./FreeRTOS_src/tasks.o
 .debug_macro   0x00000000       0x22 ./FreeRTOS_src/tasks.o
 .debug_macro   0x00000000       0x4c ./FreeRTOS_src/tasks.o
 .debug_macro   0x00000000       0x8d ./FreeRTOS_src/tasks.o
 .debug_macro   0x00000000       0x35 ./FreeRTOS_src/tasks.o
 .debug_macro   0x00000000       0x9c ./FreeRTOS_src/tasks.o
 .debug_macro   0x00000000       0x16 ./FreeRTOS_src/tasks.o
 .debug_macro   0x00000000       0x4a ./FreeRTOS_src/tasks.o
 .debug_macro   0x00000000       0x97 ./FreeRTOS_src/tasks.o
 .debug_macro   0x00000000      0x30d ./FreeRTOS_src/tasks.o
 .debug_macro   0x00000000       0xfd ./FreeRTOS_src/tasks.o
 .debug_macro   0x00000000       0x10 ./FreeRTOS_src/tasks.o
 .debug_macro   0x00000000       0x52 ./FreeRTOS_src/tasks.o
 .debug_macro   0x00000000       0x1f ./FreeRTOS_src/tasks.o
 .debug_macro   0x00000000       0x43 ./FreeRTOS_src/tasks.o
 .debug_macro   0x00000000       0x20 ./FreeRTOS_src/tasks.o
 .debug_macro   0x00000000      0x187 ./FreeRTOS_src/tasks.o
 .debug_macro   0x00000000       0x10 ./FreeRTOS_src/tasks.o
 .debug_macro   0x00000000       0x5e ./FreeRTOS_src/tasks.o
 .debug_macro   0x00000000       0x1c ./FreeRTOS_src/tasks.o
 .debug_macro   0x00000000       0x52 ./FreeRTOS_src/tasks.o
 .debug_macro   0x00000000       0x40 ./FreeRTOS_src/tasks.o
 .debug_macro   0x00000000       0x10 ./FreeRTOS_src/tasks.o
 .debug_macro   0x00000000       0x40 ./FreeRTOS_src/tasks.o
 .debug_macro   0x00000000       0xd7 ./FreeRTOS_src/tasks.o
 .debug_macro   0x00000000       0x16 ./FreeRTOS_src/tasks.o
 .debug_macro   0x00000000      0x189 ./FreeRTOS_src/tasks.o
 .debug_macro   0x00000000       0x16 ./FreeRTOS_src/tasks.o
 .debug_macro   0x00000000       0x35 ./FreeRTOS_src/tasks.o
 .debug_macro   0x00000000       0x16 ./FreeRTOS_src/tasks.o
 .debug_macro   0x00000000       0x29 ./FreeRTOS_src/tasks.o
 .debug_macro   0x00000000       0x16 ./FreeRTOS_src/tasks.o
 .debug_macro   0x00000000       0x46 ./FreeRTOS_src/tasks.o
 .debug_macro   0x00000000      0x137 ./FreeRTOS_src/tasks.o
 .debug_macro   0x00000000       0xa3 ./FreeRTOS_src/tasks.o
 .debug_macro   0x00000000       0x12 ./FreeRTOS_src/tasks.o
 .debug_macro   0x00000000       0x1f ./FreeRTOS_src/tasks.o
 .debug_macro   0x00000000      0x17e ./FreeRTOS_src/tasks.o
 .debug_macro   0x00000000       0x49 ./FreeRTOS_src/tasks.o
 .debug_macro   0x00000000       0x57 ./FreeRTOS_src/tasks.o
 .group         0x00000000        0x8 ./FreeRTOS_src/timers.o
 .group         0x00000000        0x8 ./FreeRTOS_src/timers.o
 .group         0x00000000        0x8 ./FreeRTOS_src/timers.o
 .group         0x00000000        0x8 ./FreeRTOS_src/timers.o
 .group         0x00000000        0x8 ./FreeRTOS_src/timers.o
 .group         0x00000000        0x8 ./FreeRTOS_src/timers.o
 .group         0x00000000        0x8 ./FreeRTOS_src/timers.o
 .group         0x00000000        0x8 ./FreeRTOS_src/timers.o
 .group         0x00000000        0x8 ./FreeRTOS_src/timers.o
 .group         0x00000000        0x8 ./FreeRTOS_src/timers.o
 .group         0x00000000        0x8 ./FreeRTOS_src/timers.o
 .group         0x00000000        0x8 ./FreeRTOS_src/timers.o
 .debug_macro   0x00000000      0x89e ./FreeRTOS_src/timers.o
 .debug_macro   0x00000000      0x174 ./FreeRTOS_src/timers.o
 .debug_macro   0x00000000       0x46 ./FreeRTOS_src/timers.o
 .debug_macro   0x00000000      0x137 ./FreeRTOS_src/timers.o
 .debug_macro   0x00000000       0xa3 ./FreeRTOS_src/timers.o
 .debug_macro   0x00000000       0x12 ./FreeRTOS_src/timers.o
 .debug_macro   0x00000000       0x1f ./FreeRTOS_src/timers.o
 .debug_macro   0x00000000      0x17e ./FreeRTOS_src/timers.o
 .debug_macro   0x00000000       0x49 ./FreeRTOS_src/timers.o
 .debug_macro   0x00000000       0x57 ./FreeRTOS_src/timers.o
 .debug_macro   0x00000000       0x6a ./FreeRTOS_src/timers.o
 .debug_macro   0x00000000       0x61 ./FreeRTOS_src/timers.o
 .group         0x00000000        0x8 ./FreeRTOS_portable/MemMang/heap_2.o
 .group         0x00000000        0x8 ./FreeRTOS_portable/MemMang/heap_2.o
 .group         0x00000000        0x8 ./FreeRTOS_portable/MemMang/heap_2.o
 .group         0x00000000        0x8 ./FreeRTOS_portable/MemMang/heap_2.o
 .group         0x00000000        0x8 ./FreeRTOS_portable/MemMang/heap_2.o
 .group         0x00000000        0x8 ./FreeRTOS_portable/MemMang/heap_2.o
 .group         0x00000000        0x8 ./FreeRTOS_portable/MemMang/heap_2.o
 .group         0x00000000        0x8 ./FreeRTOS_portable/MemMang/heap_2.o
 .group         0x00000000        0x8 ./FreeRTOS_portable/MemMang/heap_2.o
 .group         0x00000000        0x8 ./FreeRTOS_portable/MemMang/heap_2.o
 .group         0x00000000        0x8 ./FreeRTOS_portable/MemMang/heap_2.o
 .group         0x00000000        0x8 ./FreeRTOS_portable/MemMang/heap_2.o
 .group         0x00000000        0x8 ./FreeRTOS_portable/MemMang/heap_2.o
 .group         0x00000000        0x8 ./FreeRTOS_portable/MemMang/heap_2.o
 .group         0x00000000        0x8 ./FreeRTOS_portable/MemMang/heap_2.o
 .group         0x00000000        0x8 ./FreeRTOS_portable/MemMang/heap_2.o
 .group         0x00000000        0x8 ./FreeRTOS_portable/MemMang/heap_2.o
 .group         0x00000000        0x8 ./FreeRTOS_portable/MemMang/heap_2.o
 .group         0x00000000        0x8 ./FreeRTOS_portable/MemMang/heap_2.o
 .group         0x00000000        0x8 ./FreeRTOS_portable/MemMang/heap_2.o
 .group         0x00000000        0x8 ./FreeRTOS_portable/MemMang/heap_2.o
 .group         0x00000000        0x8 ./FreeRTOS_portable/MemMang/heap_2.o
 .group         0x00000000        0x8 ./FreeRTOS_portable/MemMang/heap_2.o
 .group         0x00000000        0x8 ./FreeRTOS_portable/MemMang/heap_2.o
 .group         0x00000000        0x8 ./FreeRTOS_portable/MemMang/heap_2.o
 .group         0x00000000        0x8 ./FreeRTOS_portable/MemMang/heap_2.o
 .debug_macro   0x00000000      0x89e ./FreeRTOS_portable/MemMang/heap_2.o
 .debug_macro   0x00000000       0x22 ./FreeRTOS_portable/MemMang/heap_2.o
 .debug_macro   0x00000000       0x4c ./FreeRTOS_portable/MemMang/heap_2.o
 .debug_macro   0x00000000       0x8d ./FreeRTOS_portable/MemMang/heap_2.o
 .debug_macro   0x00000000       0x35 ./FreeRTOS_portable/MemMang/heap_2.o
 .debug_macro   0x00000000       0x9c ./FreeRTOS_portable/MemMang/heap_2.o
 .debug_macro   0x00000000       0x16 ./FreeRTOS_portable/MemMang/heap_2.o
 .debug_macro   0x00000000      0x10e ./FreeRTOS_portable/MemMang/heap_2.o
 .debug_macro   0x00000000       0x8d ./FreeRTOS_portable/MemMang/heap_2.o
 .debug_macro   0x00000000       0x4a ./FreeRTOS_portable/MemMang/heap_2.o
 .debug_macro   0x00000000       0x52 ./FreeRTOS_portable/MemMang/heap_2.o
 .debug_macro   0x00000000       0x1f ./FreeRTOS_portable/MemMang/heap_2.o
 .debug_macro   0x00000000       0x43 ./FreeRTOS_portable/MemMang/heap_2.o
 .debug_macro   0x00000000       0x20 ./FreeRTOS_portable/MemMang/heap_2.o
 .debug_macro   0x00000000      0x187 ./FreeRTOS_portable/MemMang/heap_2.o
 .debug_macro   0x00000000      0x30d ./FreeRTOS_portable/MemMang/heap_2.o
 .debug_macro   0x00000000       0x16 ./FreeRTOS_portable/MemMang/heap_2.o
 .debug_macro   0x00000000       0x29 ./FreeRTOS_portable/MemMang/heap_2.o
 .debug_macro   0x00000000       0x46 ./FreeRTOS_portable/MemMang/heap_2.o
 .debug_macro   0x00000000      0x137 ./FreeRTOS_portable/MemMang/heap_2.o
 .debug_macro   0x00000000       0xa3 ./FreeRTOS_portable/MemMang/heap_2.o
 .debug_macro   0x00000000       0x12 ./FreeRTOS_portable/MemMang/heap_2.o
 .debug_macro   0x00000000       0x1f ./FreeRTOS_portable/MemMang/heap_2.o
 .debug_macro   0x00000000      0x17e ./FreeRTOS_portable/MemMang/heap_2.o
 .debug_macro   0x00000000       0x49 ./FreeRTOS_portable/MemMang/heap_2.o
 .debug_macro   0x00000000       0x57 ./FreeRTOS_portable/MemMang/heap_2.o
 .group         0x00000000        0x8 ./FreeRTOS_portable/port.o
 .group         0x00000000        0x8 ./FreeRTOS_portable/port.o
 .group         0x00000000        0x8 ./FreeRTOS_portable/port.o
 .group         0x00000000        0x8 ./FreeRTOS_portable/port.o
 .group         0x00000000        0x8 ./FreeRTOS_portable/port.o
 .group         0x00000000        0x8 ./FreeRTOS_portable/port.o
 .group         0x00000000        0x8 ./FreeRTOS_portable/port.o
 .group         0x00000000        0x8 ./FreeRTOS_portable/port.o
 .group         0x00000000        0x8 ./FreeRTOS_portable/port.o
 .group         0x00000000        0x8 ./FreeRTOS_portable/port.o
 .debug_macro   0x00000000      0x89e ./FreeRTOS_portable/port.o
 .debug_macro   0x00000000      0x174 ./FreeRTOS_portable/port.o
 .debug_macro   0x00000000       0x46 ./FreeRTOS_portable/port.o
 .debug_macro   0x00000000      0x137 ./FreeRTOS_portable/port.o
 .debug_macro   0x00000000       0xa3 ./FreeRTOS_portable/port.o
 .debug_macro   0x00000000       0x12 ./FreeRTOS_portable/port.o
 .debug_macro   0x00000000       0x1f ./FreeRTOS_portable/port.o
 .debug_macro   0x00000000      0x17e ./FreeRTOS_portable/port.o
 .debug_macro   0x00000000       0x49 ./FreeRTOS_portable/port.o
 .debug_macro   0x00000000       0x57 ./FreeRTOS_portable/port.o

Memory Configuration

Name             Origin             Length             Attributes
MFlash512        0x00000000         0x00080000         xr
RamLoc32         0x10000000         0x00008000         xrw
RamAHB32         0x2007c000         0x00008000         xrw
*default*        0x00000000         0xffffffff

Linker script and memory map

LOAD ./src/pi7/programa_trajetoria/programa_trajetoria.o
LOAD ./src/pi7/interpretador_comando/interpretador_comando.o
LOAD ./src/pi7/estado_trajetoria/estado_trajetoria.o
LOAD ./src/pi7/controlador_trajetoria/controlador_trajetoria.o
LOAD ./src/pi7/comunicacao_pic/comunicacao_pic.o
LOAD ./src/pi7/comunicacao_pc/modbus.o
LOAD ./src/drivers/uart/uart.o
LOAD ./src/drivers/pwm/pwm.o
LOAD ./src/drivers/ledonboard/leds.o
LOAD ./src/drivers/console/alloc.o
LOAD ./src/drivers/console/basic_io.o
LOAD ./src/drivers/console/consoleprint.o
LOAD ./src/cr_startup_lpc17.o
LOAD ./src/main.o
LOAD ./FreeRTOS_src/croutine.o
LOAD ./FreeRTOS_src/list.o
LOAD ./FreeRTOS_src/queue.o
LOAD ./FreeRTOS_src/tasks.o
LOAD ./FreeRTOS_src/timers.o
LOAD ./FreeRTOS_portable/MemMang/heap_2.o
LOAD ./FreeRTOS_portable/port.o
LOAD ../Libraries\libCMSISv2_LPC17xx.a
START GROUP
LOAD d:/nxp/lpcxpresso_8.2.2_650/lpcxpresso/tools/bin/../lib/gcc/arm-none-eabi/5.4.1/armv7-m\libgcc.a
LOAD d:/nxp/lpcxpresso_8.2.2_650/lpcxpresso/tools/bin/../lib/gcc/arm-none-eabi/5.4.1/../../../../arm-none-eabi/lib/armv7-m\libc.a
LOAD d:/nxp/lpcxpresso_8.2.2_650/lpcxpresso/tools/bin/../lib/gcc/arm-none-eabi/5.4.1/../../../../arm-none-eabi/lib/armv7-m\libm.a
LOAD d:/nxp/lpcxpresso_8.2.2_650/lpcxpresso/tools/bin/../lib/gcc/arm-none-eabi/5.4.1/../../../../arm-none-eabi/lib/armv7-m\libcr_newlib_semihost.a
END GROUP
                0x00000000                __base_MFlash512 = 0x0
                0x00000000                __base_Flash = 0x0
                0x00080000                __top_MFlash512 = 0x80000
                0x00080000                __top_Flash = 0x80000
                0x10000000                __base_RamLoc32 = 0x10000000
                0x10000000                __base_RAM = 0x10000000
                0x10008000                __top_RamLoc32 = 0x10008000
                0x10008000                __top_RAM = 0x10008000
                0x2007c000                __base_RamAHB32 = 0x2007c000
                0x2007c000                __base_RAM2 = 0x2007c000
                0x20084000                __top_RamAHB32 = 0x20084000
                0x20084000                __top_RAM2 = 0x20084000

.text           0x00000000     0xb6b0
 FILL mask 0xff
                0x00000000                __vectors_start__ = ABSOLUTE (.)
 *(.isr_vector)
 .isr_vector    0x00000000       0xcc ./src/cr_startup_lpc17.o
                0x00000000                g_pfnVectors
                0x000000cc                . = ALIGN (0x4)
                0x000000cc                __section_table_start = .
                0x000000cc                __data_section_table = .
                0x000000cc        0x4 LONG 0xb6b8 LOADADDR (.data)
                0x000000d0        0x4 LONG 0x10000000 ADDR (.data)
                0x000000d4        0x4 LONG 0x4ec SIZEOF (.data)
                0x000000d8        0x4 LONG 0xb6b8 LOADADDR (.data_RAM2)
                0x000000dc        0x4 LONG 0x2007c000 ADDR (.data_RAM2)
                0x000000e0        0x4 LONG 0x0 SIZEOF (.data_RAM2)
                0x000000e4                __data_section_table_end = .
                0x000000e4                __bss_section_table = .
                0x000000e4        0x4 LONG 0x100004f0 ADDR (.bss)
                0x000000e8        0x4 LONG 0x59b0 SIZEOF (.bss)
                0x000000ec        0x4 LONG 0x2007c000 ADDR (.bss_RAM2)
                0x000000f0        0x4 LONG 0x0 SIZEOF (.bss_RAM2)
                0x000000f4                __bss_section_table_end = .
                0x000000f4                __section_table_end = .
 *(.after_vectors*)
 *(.text*)
 .text          0x000000f4        0x0 ./src/pi7/programa_trajetoria/programa_trajetoria.o
 .text.ptj_storeProgram
                0x000000f4        0x2 ./src/pi7/programa_trajetoria/programa_trajetoria.o
                0x000000f4                ptj_storeProgram
 *fill*         0x000000f6        0x2 ff
 .text.ptj_getLine
                0x000000f8       0x1c ./src/pi7/programa_trajetoria/programa_trajetoria.o
                0x000000f8                ptj_getLine
 .text.ptj_init
                0x00000114       0x1c ./src/pi7/programa_trajetoria/programa_trajetoria.o
                0x00000114                ptj_init
 .text          0x00000130        0x0 ./src/pi7/interpretador_comando/interpretador_comando.o
 .text.setAUX   0x00000130        0xc ./src/pi7/interpretador_comando/interpretador_comando.o
                0x00000130                setAUX
 .text.getAUX   0x0000013c        0xc ./src/pi7/interpretador_comando/interpretador_comando.o
                0x0000013c                getAUX
 .text.ctl_ReadRegister
                0x00000148       0x44 ./src/pi7/interpretador_comando/interpretador_comando.o
                0x00000148                ctl_ReadRegister
 .text.ctl_WriteRegister
                0x0000018c       0x64 ./src/pi7/interpretador_comando/interpretador_comando.o
                0x0000018c                ctl_WriteRegister
 .text.ctl_WriteProgram
                0x000001f0        0x4 ./src/pi7/interpretador_comando/interpretador_comando.o
                0x000001f0                ctl_WriteProgram
 .text.ctl_init
                0x000001f4        0x2 ./src/pi7/interpretador_comando/interpretador_comando.o
                0x000001f4                ctl_init
 .text          0x000001f6        0x0 ./src/pi7/estado_trajetoria/estado_trajetoria.o
 *fill*         0x000001f6        0x2 ff
 .text.stt_getCurrentLine
                0x000001f8        0xc ./src/pi7/estado_trajetoria/estado_trajetoria.o
                0x000001f8                stt_getCurrentLine
 .text.stt_setCurrentLine
                0x00000204        0xc ./src/pi7/estado_trajetoria/estado_trajetoria.o
                0x00000204                stt_setCurrentLine
 .text.stt_getX
                0x00000210        0xc ./src/pi7/estado_trajetoria/estado_trajetoria.o
                0x00000210                stt_getX
 .text.stt_getY
                0x0000021c        0xc ./src/pi7/estado_trajetoria/estado_trajetoria.o
                0x0000021c                stt_getY
 .text.stt_getZ
                0x00000228        0xc ./src/pi7/estado_trajetoria/estado_trajetoria.o
                0x00000228                stt_getZ
 .text.stt_setX
                0x00000234        0xc ./src/pi7/estado_trajetoria/estado_trajetoria.o
                0x00000234                stt_setX
 .text.stt_setY
                0x00000240        0xc ./src/pi7/estado_trajetoria/estado_trajetoria.o
                0x00000240                stt_setY
 .text.stt_setZ
                0x0000024c        0xc ./src/pi7/estado_trajetoria/estado_trajetoria.o
                0x0000024c                stt_setZ
 .text.stt_init
                0x00000258        0x2 ./src/pi7/estado_trajetoria/estado_trajetoria.o
                0x00000258                stt_init
 .text          0x0000025a        0x0 ./src/pi7/controlador_trajetoria/controlador_trajetoria.o
 *fill*         0x0000025a        0x2 ff
 .text.trj_generateSetpoint
                0x0000025c       0x54 ./src/pi7/controlador_trajetoria/controlador_trajetoria.o
                0x0000025c                trj_generateSetpoint
 .text.trj_processCommand
                0x000002b0       0x3c ./src/pi7/controlador_trajetoria/controlador_trajetoria.o
                0x000002b0                trj_processCommand
 .text.trj_init
                0x000002ec        0xc ./src/pi7/controlador_trajetoria/controlador_trajetoria.o
                0x000002ec                trj_init
 .text          0x000002f8        0x0 ./src/pi7/comunicacao_pic/comunicacao_pic.o
 .text.pic_sendToPIC
                0x000002f8       0x3c ./src/pi7/comunicacao_pic/comunicacao_pic.o
                0x000002f8                pic_sendToPIC
 .text.pic_init
                0x00000334        0x2 ./src/pi7/comunicacao_pic/comunicacao_pic.o
                0x00000334                pic_init
 .text          0x00000336        0x0 ./src/pi7/comunicacao_pc/modbus.o
 .text.decode   0x00000336       0x20 ./src/pi7/comunicacao_pc/modbus.o
                0x00000336                decode
 .text.encodeLow
                0x00000356        0xe ./src/pi7/comunicacao_pc/modbus.o
                0x00000356                encodeLow
 .text.encodeHigh
                0x00000364        0xc ./src/pi7/comunicacao_pc/modbus.o
                0x00000364                encodeHigh
 .text.putCharToSerial
                0x00000370       0x30 ./src/pi7/comunicacao_pc/modbus.o
                0x00000370                putCharToSerial
 .text.getCharFromSerial
                0x000003a0       0x34 ./src/pi7/comunicacao_pc/modbus.o
                0x000003a0                getCharFromSerial
 .text.myLRC    0x000003d4       0x1c ./src/pi7/comunicacao_pc/modbus.o
                0x000003d4                myLRC
 .text.calculateLRC
                0x000003f0        0x4 ./src/pi7/comunicacao_pc/modbus.o
                0x000003f0                calculateLRC
 .text.checkLRC
                0x000003f4       0x50 ./src/pi7/comunicacao_pc/modbus.o
                0x000003f4                checkLRC
 .text.processReadRegister
                0x00000444       0x78 ./src/pi7/comunicacao_pc/modbus.o
                0x00000444                processReadRegister
 .text.processWriteRegister
                0x000004bc       0x98 ./src/pi7/comunicacao_pc/modbus.o
                0x000004bc                processWriteRegister
 .text.processWriteFile
                0x00000554        0x2 ./src/pi7/comunicacao_pc/modbus.o
                0x00000554                processWriteFile
 *fill*         0x00000556        0x2 ff
 .text.decodeFunctionCode
                0x00000558       0x14 ./src/pi7/comunicacao_pc/modbus.o
                0x00000558                decodeFunctionCode
 .text.processMessage
                0x0000056c       0x2c ./src/pi7/comunicacao_pc/modbus.o
                0x0000056c                processMessage
 .text.receiveMessage
                0x00000598       0x70 ./src/pi7/comunicacao_pc/modbus.o
                0x00000598                receiveMessage
 .text.com_init
                0x00000608       0x1c ./src/pi7/comunicacao_pc/modbus.o
                0x00000608                com_init
 .text.com_executeCommunication
                0x00000624       0x1c ./src/pi7/comunicacao_pc/modbus.o
                0x00000624                com_executeCommunication
 .text          0x00000640        0x0 ./src/drivers/uart/uart.o
 .text.UARTGetChar
                0x00000640       0x3c ./src/drivers/uart/uart.o
                0x00000640                UARTGetChar
 .text.UART0_IRQHandler
                0x0000067c       0xb8 ./src/drivers/uart/uart.o
                0x0000067c                UART0_IRQHandler
 .text.UART1_IRQHandler
                0x00000734       0xb8 ./src/drivers/uart/uart.o
                0x00000734                UART1_IRQHandler
 .text.UARTInit
                0x000007ec      0x104 ./src/drivers/uart/uart.o
                0x000007ec                UARTInit
 .text.UARTSend
                0x000008f0       0x50 ./src/drivers/uart/uart.o
                0x000008f0                UARTSend
 .text.UARTSendNullTerminated
                0x00000940       0x50 ./src/drivers/uart/uart.o
                0x00000940                UARTSendNullTerminated
 .text          0x00000990        0x0 ./src/drivers/pwm/pwm.o
 .text.PWM1_IRQHandler
                0x00000990       0x20 ./src/drivers/pwm/pwm.o
                0x00000990                PWM1_IRQHandler
 .text.PWM_Init
                0x000009b0       0x6c ./src/drivers/pwm/pwm.o
                0x000009b0                PWM_Init
 .text.PWM_Set  0x00000a1c       0x48 ./src/drivers/pwm/pwm.o
                0x00000a1c                PWM_Set
 .text.PWM_Start
                0x00000a64       0x18 ./src/drivers/pwm/pwm.o
                0x00000a64                PWM_Start
 .text.PWM_Stop
                0x00000a7c       0x14 ./src/drivers/pwm/pwm.o
                0x00000a7c                PWM_Stop
 .text          0x00000a90        0x0 ./src/drivers/ledonboard/leds.o
 .text.led2_init
                0x00000a90       0x20 ./src/drivers/ledonboard/leds.o
                0x00000a90                led2_init
 .text.led2_on  0x00000ab0       0x10 ./src/drivers/ledonboard/leds.o
                0x00000ab0                led2_on
 .text.led2_off
                0x00000ac0       0x10 ./src/drivers/ledonboard/leds.o
                0x00000ac0                led2_off
 .text.led2_invert
                0x00000ad0       0x18 ./src/drivers/ledonboard/leds.o
                0x00000ad0                led2_invert
 .text          0x00000ae8        0x0 ./src/drivers/console/alloc.o
 .text._realloc_r
                0x00000ae8       0x2a ./src/drivers/console/alloc.o
                0x00000ae8                _realloc_r
 .text._calloc_r
                0x00000b12        0x8 ./src/drivers/console/alloc.o
                0x00000b12                _calloc_r
 .text._malloc_r
                0x00000b1a        0x6 ./src/drivers/console/alloc.o
                0x00000b1a                _malloc_r
 .text._free_r  0x00000b20        0x6 ./src/drivers/console/alloc.o
                0x00000b20                _free_r
 .text          0x00000b26        0x0 ./src/drivers/console/basic_io.o
 *fill*         0x00000b26        0x2 ff
 .text.vPrintString
                0x00000b28       0x20 ./src/drivers/console/basic_io.o
                0x00000b28                vPrintString
 .text.vPrintStringAndNumber
                0x00000b48       0x30 ./src/drivers/console/basic_io.o
                0x00000b48                vPrintStringAndNumber
 .text          0x00000b78        0x0 ./src/drivers/console/consoleprint.o
 .text.consoleprint
                0x00000b78       0x16 ./src/drivers/console/consoleprint.o
                0x00000b78                consoleprint
 .text          0x00000b8e        0x0 ./src/cr_startup_lpc17.o
 .text.NMI_Handler
                0x00000b8e        0x2 ./src/cr_startup_lpc17.o
                0x00000b8e                NMI_Handler
 .text.HardFault_Handler
                0x00000b90        0x2 ./src/cr_startup_lpc17.o
                0x00000b90                HardFault_Handler
 .text.MemManage_Handler
                0x00000b92        0x2 ./src/cr_startup_lpc17.o
                0x00000b92                MemManage_Handler
 .text.BusFault_Handler
                0x00000b94        0x2 ./src/cr_startup_lpc17.o
                0x00000b94                BusFault_Handler
 .text.UsageFault_Handler
                0x00000b96        0x2 ./src/cr_startup_lpc17.o
                0x00000b96                UsageFault_Handler
 .text.DebugMon_Handler
                0x00000b98        0x2 ./src/cr_startup_lpc17.o
                0x00000b98                DebugMon_Handler
 .text.IntDefaultHandler
                0x00000b9a        0x2 ./src/cr_startup_lpc17.o
                0x00000b9a                TIMER2_IRQHandler
                0x00000b9a                RIT_IRQHandler
                0x00000b9a                I2C0_IRQHandler
                0x00000b9a                USBActivity_IRQHandler
                0x00000b9a                I2C1_IRQHandler
                0x00000b9a                EINT2_IRQHandler
                0x00000b9a                EINT3_IRQHandler
                0x00000b9a                CANActivity_IRQHandler
                0x00000b9a                TIMER3_IRQHandler
                0x00000b9a                IntDefaultHandler
                0x00000b9a                PLL0_IRQHandler
                0x00000b9a                CAN_IRQHandler
                0x00000b9a                PLL1_IRQHandler
                0x00000b9a                SSP0_IRQHandler
                0x00000b9a                I2S_IRQHandler
                0x00000b9a                I2C2_IRQHandler
                0x00000b9a                RTC_IRQHandler
                0x00000b9a                TIMER0_IRQHandler
                0x00000b9a                SPI_IRQHandler
                0x00000b9a                EINT1_IRQHandler
                0x00000b9a                TIMER1_IRQHandler
                0x00000b9a                UART2_IRQHandler
                0x00000b9a                ADC_IRQHandler
                0x00000b9a                SSP1_IRQHandler
                0x00000b9a                USB_IRQHandler
                0x00000b9a                BOD_IRQHandler
                0x00000b9a                WDT_IRQHandler
                0x00000b9a                QEI_IRQHandler
                0x00000b9a                EINT0_IRQHandler
                0x00000b9a                DMA_IRQHandler
                0x00000b9a                UART3_IRQHandler
                0x00000b9a                MCPWM_IRQHandler
                0x00000b9a                ENET_IRQHandler
 .text.ResetISR
                0x00000b9c       0x48 ./src/cr_startup_lpc17.o
                0x00000b9c                ResetISR
 .text          0x00000be4        0x0 ./src/main.o
 .text.taskController
                0x00000be4       0x14 ./src/main.o
                0x00000be4                taskController
 .text.taskBlinkLed
                0x00000bf8       0x10 ./src/main.o
                0x00000bf8                taskBlinkLed
 .text.__error__
                0x00000c08        0x2 ./src/main.o
                0x00000c08                __error__
 *fill*         0x00000c0a        0x2 ff
 .text.taskNCProcessing
                0x00000c0c       0x3c ./src/main.o
                0x00000c0c                taskNCProcessing
 .text.taskCommPIC
                0x00000c48       0x24 ./src/main.o
                0x00000c48                taskCommPIC
 .text.startup.main
                0x00000c6c       0xac ./src/main.o
                0x00000c6c                main
 .text          0x00000d18        0x0 ./FreeRTOS_src/croutine.o
 .text.xCoRoutineCreate
                0x00000d18       0xc4 ./FreeRTOS_src/croutine.o
                0x00000d18                xCoRoutineCreate
 .text.vCoRoutineAddToDelayedList
                0x00000ddc       0x4c ./FreeRTOS_src/croutine.o
                0x00000ddc                vCoRoutineAddToDelayedList
 .text.vCoRoutineSchedule
                0x00000e28      0x164 ./FreeRTOS_src/croutine.o
                0x00000e28                vCoRoutineSchedule
 .text.xCoRoutineRemoveFromEventList
                0x00000f8c       0x34 ./FreeRTOS_src/croutine.o
                0x00000f8c                xCoRoutineRemoveFromEventList
 .text          0x00000fc0        0x0 ./FreeRTOS_src/list.o
 .text.vListInitialise
                0x00000fc0       0x16 ./FreeRTOS_src/list.o
                0x00000fc0                vListInitialise
 .text.vListInitialiseItem
                0x00000fd6        0x6 ./FreeRTOS_src/list.o
                0x00000fd6                vListInitialiseItem
 .text.vListInsertEnd
                0x00000fdc       0x1a ./FreeRTOS_src/list.o
                0x00000fdc                vListInsertEnd
 .text.vListInsert
                0x00000ff6       0x30 ./FreeRTOS_src/list.o
                0x00000ff6                vListInsert
 .text.vListRemove
                0x00001026       0x20 ./FreeRTOS_src/list.o
                0x00001026                vListRemove
 .text          0x00001046        0x0 ./FreeRTOS_src/queue.o
 .text.prvCopyDataToQueue
                0x00001046       0x58 ./FreeRTOS_src/queue.o
 .text.prvCopyDataFromQueue
                0x0000109e       0x26 ./FreeRTOS_src/queue.o
 .text.prvUnlockQueue
                0x000010c4       0x68 ./FreeRTOS_src/queue.o
 .text.xQueueCreate
                0x0000112c       0x68 ./FreeRTOS_src/queue.o
                0x0000112c                xQueueCreate
 .text.xQueueGenericSend
                0x00001194       0xd0 ./FreeRTOS_src/queue.o
                0x00001194                xQueueGenericSend
 .text.xQueueCreateMutex
                0x00001264       0x44 ./FreeRTOS_src/queue.o
                0x00001264                xQueueCreateMutex
 .text.xQueueGiveMutexRecursive
                0x000012a8       0x2a ./FreeRTOS_src/queue.o
                0x000012a8                xQueueGiveMutexRecursive
 .text.xQueueGenericSendFromISR
                0x000012d2       0x4e ./FreeRTOS_src/queue.o
                0x000012d2                xQueueGenericSendFromISR
 .text.xQueueGenericReceive
                0x00001320      0x104 ./FreeRTOS_src/queue.o
                0x00001320                xQueueGenericReceive
 .text.xQueueTakeMutexRecursive
                0x00001424       0x32 ./FreeRTOS_src/queue.o
                0x00001424                xQueueTakeMutexRecursive
 .text.xQueueReceiveFromISR
                0x00001456       0x4a ./FreeRTOS_src/queue.o
                0x00001456                xQueueReceiveFromISR
 .text.uxQueueMessagesWaiting
                0x000014a0       0x12 ./FreeRTOS_src/queue.o
                0x000014a0                uxQueueMessagesWaiting
 .text.uxQueueMessagesWaitingFromISR
                0x000014b2        0x4 ./FreeRTOS_src/queue.o
                0x000014b2                uxQueueMessagesWaitingFromISR
 *fill*         0x000014b6        0x2 ff
 .text.vQueueDelete
                0x000014b8       0x38 ./FreeRTOS_src/queue.o
                0x000014b8                vQueueDelete
 .text.xQueueIsQueueEmptyFromISR
                0x000014f0        0xa ./FreeRTOS_src/queue.o
                0x000014f0                xQueueIsQueueEmptyFromISR
 .text.xQueueIsQueueFullFromISR
                0x000014fa        0xc ./FreeRTOS_src/queue.o
                0x000014fa                xQueueIsQueueFullFromISR
 *fill*         0x00001506        0x2 ff
 .text.vQueueAddToRegistry
                0x00001508       0x28 ./FreeRTOS_src/queue.o
                0x00001508                vQueueAddToRegistry
 .text          0x00001530        0x0 ./FreeRTOS_src/tasks.o
 .text.prvAddCurrentTaskToDelayedList
                0x00001530       0x50 ./FreeRTOS_src/tasks.o
 .text.prvListTaskWithinSingleList
                0x00001580       0x78 ./FreeRTOS_src/tasks.o
 .text.xTaskGenericCreate
                0x000015f8      0x194 ./FreeRTOS_src/tasks.o
                0x000015f8                xTaskGenericCreate
 .text.vTaskDelete
                0x0000178c       0x70 ./FreeRTOS_src/tasks.o
                0x0000178c                vTaskDelete
 .text.uxTaskPriorityGet
                0x000017fc       0x1c ./FreeRTOS_src/tasks.o
                0x000017fc                uxTaskPriorityGet
 .text.vTaskPrioritySet
                0x00001818       0x94 ./FreeRTOS_src/tasks.o
                0x00001818                vTaskPrioritySet
 .text.xTaskIsTaskSuspended
                0x000018ac       0x24 ./FreeRTOS_src/tasks.o
                0x000018ac                xTaskIsTaskSuspended
 .text.vTaskResume
                0x000018d0       0x64 ./FreeRTOS_src/tasks.o
                0x000018d0                vTaskResume
 .text.xTaskResumeFromISR
                0x00001934       0x6c ./FreeRTOS_src/tasks.o
                0x00001934                xTaskResumeFromISR
 .text.vTaskStartScheduler
                0x000019a0       0x4c ./FreeRTOS_src/tasks.o
                0x000019a0                vTaskStartScheduler
 .text.vTaskEndScheduler
                0x000019ec       0x18 ./FreeRTOS_src/tasks.o
                0x000019ec                vTaskEndScheduler
 .text.vTaskSuspendAll
                0x00001a04       0x10 ./FreeRTOS_src/tasks.o
                0x00001a04                vTaskSuspendAll
 .text.xTaskGetTickCount
                0x00001a14       0x18 ./FreeRTOS_src/tasks.o
                0x00001a14                xTaskGetTickCount
 .text.xTaskGetTickCountFromISR
                0x00001a2c       0x1c ./FreeRTOS_src/tasks.o
                0x00001a2c                xTaskGetTickCountFromISR
 .text.uxTaskGetNumberOfTasks
                0x00001a48        0xc ./FreeRTOS_src/tasks.o
                0x00001a48                uxTaskGetNumberOfTasks
 .text.vTaskStartTrace
                0x00001a54       0x38 ./FreeRTOS_src/tasks.o
                0x00001a54                vTaskStartTrace
 .text.ulTaskEndTrace
                0x00001a8c       0x28 ./FreeRTOS_src/tasks.o
                0x00001a8c                ulTaskEndTrace
 .text.vTaskIncrementTick
                0x00001ab4       0xe0 ./FreeRTOS_src/tasks.o
                0x00001ab4                vTaskIncrementTick
 .text.xTaskResumeAll
                0x00001b94       0xc8 ./FreeRTOS_src/tasks.o
                0x00001b94                xTaskResumeAll
 .text.vTaskDelayUntil
                0x00001c5c       0x5c ./FreeRTOS_src/tasks.o
                0x00001c5c                vTaskDelayUntil
 .text.vTaskDelay
                0x00001cb8       0x38 ./FreeRTOS_src/tasks.o
                0x00001cb8                vTaskDelay
 .text.prvIdleTask
                0x00001cf0       0x60 ./FreeRTOS_src/tasks.o
 .text.vTaskList
                0x00001d50       0xa8 ./FreeRTOS_src/tasks.o
                0x00001d50                vTaskList
 .text.vTaskSwitchContext
                0x00001df8       0xc4 ./FreeRTOS_src/tasks.o
                0x00001df8                vTaskSwitchContext
 .text.vTaskSuspend
                0x00001ebc       0x74 ./FreeRTOS_src/tasks.o
                0x00001ebc                vTaskSuspend
 .text.vTaskPlaceOnEventList
                0x00001f30       0x44 ./FreeRTOS_src/tasks.o
                0x00001f30                vTaskPlaceOnEventList
 .text.xTaskRemoveFromEventList
                0x00001f74       0x64 ./FreeRTOS_src/tasks.o
                0x00001f74                xTaskRemoveFromEventList
 .text.vTaskSetTimeOutState
                0x00001fd8       0x18 ./FreeRTOS_src/tasks.o
                0x00001fd8                vTaskSetTimeOutState
 .text.xTaskCheckForTimeOut
                0x00001ff0       0x54 ./FreeRTOS_src/tasks.o
                0x00001ff0                xTaskCheckForTimeOut
 .text.vTaskMissedYield
                0x00002044        0xc ./FreeRTOS_src/tasks.o
                0x00002044                vTaskMissedYield
 .text.uxTaskGetStackHighWaterMark
                0x00002050       0x20 ./FreeRTOS_src/tasks.o
                0x00002050                uxTaskGetStackHighWaterMark
 .text.xTaskGetCurrentTaskHandle
                0x00002070        0xc ./FreeRTOS_src/tasks.o
                0x00002070                xTaskGetCurrentTaskHandle
 .text.vTaskPriorityInherit
                0x0000207c       0x68 ./FreeRTOS_src/tasks.o
                0x0000207c                vTaskPriorityInherit
 .text.vTaskPriorityDisinherit
                0x000020e4       0x48 ./FreeRTOS_src/tasks.o
                0x000020e4                vTaskPriorityDisinherit
 .text          0x0000212c        0x0 ./FreeRTOS_src/timers.o
 .text          0x0000212c        0x0 ./FreeRTOS_portable/MemMang/heap_2.o
 .text.pvPortMalloc
                0x0000212c       0xb4 ./FreeRTOS_portable/MemMang/heap_2.o
                0x0000212c                pvPortMalloc
 .text.vPortFree
                0x000021e0       0x40 ./FreeRTOS_portable/MemMang/heap_2.o
                0x000021e0                vPortFree
 .text.xPortGetFreeHeapSize
                0x00002220        0xc ./FreeRTOS_portable/MemMang/heap_2.o
                0x00002220                xPortGetFreeHeapSize
 .text.vPortInitialiseBlocks
                0x0000222c        0x2 ./FreeRTOS_portable/MemMang/heap_2.o
                0x0000222c                vPortInitialiseBlocks
 .text          0x0000222e        0x0 ./FreeRTOS_portable/port.o
 .text.pxPortInitialiseStack
                0x0000222e       0x16 ./FreeRTOS_portable/port.o
                0x0000222e                pxPortInitialiseStack
 .text.vPortSVCHandler
                0x00002244       0x20 ./FreeRTOS_portable/port.o
                0x00002244                vPortSVCHandler
 .text.vPortStartFirstTask
                0x00002264       0x14 ./FreeRTOS_portable/port.o
                0x00002264                vPortStartFirstTask
 .text.xPortStartScheduler
                0x00002278       0x40 ./FreeRTOS_portable/port.o
                0x00002278                xPortStartScheduler
 .text.vPortEndScheduler
                0x000022b8        0x2 ./FreeRTOS_portable/port.o
                0x000022b8                vPortEndScheduler
 *fill*         0x000022ba        0x2 ff
 .text.vPortYieldFromISR
                0x000022bc       0x10 ./FreeRTOS_portable/port.o
                0x000022bc                vPortYieldFromISR
 .text.vPortEnterCritical
                0x000022cc       0x18 ./FreeRTOS_portable/port.o
                0x000022cc                vPortEnterCritical
 .text.vPortExitCritical
                0x000022e4       0x18 ./FreeRTOS_portable/port.o
                0x000022e4                vPortExitCritical
 .text.xPortPendSVHandler
                0x000022fc       0x3c ./FreeRTOS_portable/port.o
                0x000022fc                xPortPendSVHandler
 .text.xPortSysTickHandler
                0x00002338       0x24 ./FreeRTOS_portable/port.o
                0x00002338                xPortSysTickHandler
 .text          0x0000235c        0x0 ../Libraries\libCMSISv2_LPC17xx.a(system_LPC17xx.o)
 .text.SystemInit
                0x0000235c      0x1e4 ../Libraries\libCMSISv2_LPC17xx.a(system_LPC17xx.o)
                0x0000235c                SystemInit
 .text.SystemClockUpdate
                0x00002540      0x224 ../Libraries\libCMSISv2_LPC17xx.a(system_LPC17xx.o)
                0x00002540                SystemClockUpdate
 .text          0x00002764      0x370 d:/nxp/lpcxpresso_8.2.2_650/lpcxpresso/tools/bin/../lib/gcc/arm-none-eabi/5.4.1/armv7-m\libgcc.a(_arm_addsubdf3.o)
                0x00002764                __aeabi_drsub
                0x0000276c                __aeabi_dsub
                0x0000276c                __subdf3
                0x00002770                __aeabi_dadd
                0x00002770                __adddf3
                0x000029e8                __floatunsidf
                0x000029e8                __aeabi_ui2d
                0x00002a08                __floatsidf
                0x00002a08                __aeabi_i2d
                0x00002a2c                __aeabi_f2d
                0x00002a2c                __extendsfdf2
                0x00002a68                __floatundidf
                0x00002a68                __aeabi_ul2d
                0x00002a78                __floatdidf
                0x00002a78                __aeabi_l2d
 .text          0x00002ad4       0x4c d:/nxp/lpcxpresso_8.2.2_650/lpcxpresso/tools/bin/../lib/gcc/arm-none-eabi/5.4.1/armv7-m\libgcc.a(_arm_fixsfsi.o)
                0x00002ad4                __aeabi_f2iz
                0x00002ad4                __fixsfsi
 .text          0x00002b20       0xec d:/nxp/lpcxpresso_8.2.2_650/lpcxpresso/tools/bin/../lib/gcc/arm-none-eabi/5.4.1/../../../../arm-none-eabi/lib/armv7-m\libc.a(lib_a-memcpy.o)
                0x00002b20                memcpy
 .text          0x00002c0c        0x0 d:/nxp/lpcxpresso_8.2.2_650/lpcxpresso/tools/bin/../lib/gcc/arm-none-eabi/5.4.1/../../../../arm-none-eabi/lib/armv7-m\libc.a(lib_a-memset.o)
 .text.memset   0x00002c0c       0x9c d:/nxp/lpcxpresso_8.2.2_650/lpcxpresso/tools/bin/../lib/gcc/arm-none-eabi/5.4.1/../../../../arm-none-eabi/lib/armv7-m\libc.a(lib_a-memset.o)
                0x00002c0c                memset
 .text          0x00002ca8        0x0 d:/nxp/lpcxpresso_8.2.2_650/lpcxpresso/tools/bin/../lib/gcc/arm-none-eabi/5.4.1/../../../../arm-none-eabi/lib/armv7-m\libc.a(lib_a-printf.o)
 .text._printf_r
                0x00002ca8       0x20 d:/nxp/lpcxpresso_8.2.2_650/lpcxpresso/tools/bin/../lib/gcc/arm-none-eabi/5.4.1/../../../../arm-none-eabi/lib/armv7-m\libc.a(lib_a-printf.o)
                0x00002ca8                _printf_r
 .text.printf   0x00002cc8       0x28 d:/nxp/lpcxpresso_8.2.2_650/lpcxpresso/tools/bin/../lib/gcc/arm-none-eabi/5.4.1/../../../../arm-none-eabi/lib/armv7-m\libc.a(lib_a-printf.o)
                0x00002cc8                printf
 .text          0x00002cf0        0x0 d:/nxp/lpcxpresso_8.2.2_650/lpcxpresso/tools/bin/../lib/gcc/arm-none-eabi/5.4.1/../../../../arm-none-eabi/lib/armv7-m\libc.a(lib_a-sprintf.o)
 .text._sprintf_r
                0x00002cf0       0x44 d:/nxp/lpcxpresso_8.2.2_650/lpcxpresso/tools/bin/../lib/gcc/arm-none-eabi/5.4.1/../../../../arm-none-eabi/lib/armv7-m\libc.a(lib_a-sprintf.o)
                0x00002cf0                _sprintf_r
 .text.sprintf  0x00002d34       0x4c d:/nxp/lpcxpresso_8.2.2_650/lpcxpresso/tools/bin/../lib/gcc/arm-none-eabi/5.4.1/../../../../arm-none-eabi/lib/armv7-m\libc.a(lib_a-sprintf.o)
                0x00002d34                sprintf
 .text          0x00002d80        0x0 d:/nxp/lpcxpresso_8.2.2_650/lpcxpresso/tools/bin/../lib/gcc/arm-none-eabi/5.4.1/../../../../arm-none-eabi/lib/armv7-m\libc.a(lib_a-strcat.o)
 .text.strcat   0x00002d80       0x40 d:/nxp/lpcxpresso_8.2.2_650/lpcxpresso/tools/bin/../lib/gcc/arm-none-eabi/5.4.1/../../../../arm-none-eabi/lib/armv7-m\libc.a(lib_a-strcat.o)
                0x00002d80                strcat
 .text          0x00002dc0        0x0 d:/nxp/lpcxpresso_8.2.2_650/lpcxpresso/tools/bin/../lib/gcc/arm-none-eabi/5.4.1/../../../../arm-none-eabi/lib/armv7-m\libc.a(lib_a-strcpy.o)
 .text.strcpy   0x00002dc0       0xbc d:/nxp/lpcxpresso_8.2.2_650/lpcxpresso/tools/bin/../lib/gcc/arm-none-eabi/5.4.1/../../../../arm-none-eabi/lib/armv7-m\libc.a(lib_a-strcpy.o)
                0x00002dc0                strcpy
 .text          0x00002e7c        0x0 d:/nxp/lpcxpresso_8.2.2_650/lpcxpresso/tools/bin/../lib/gcc/arm-none-eabi/5.4.1/../../../../arm-none-eabi/lib/armv7-m\libc.a(lib_a-strlen-stub.o)
 .text.strlen   0x00002e7c       0x5c d:/nxp/lpcxpresso_8.2.2_650/lpcxpresso/tools/bin/../lib/gcc/arm-none-eabi/5.4.1/../../../../arm-none-eabi/lib/armv7-m\libc.a(lib_a-strlen-stub.o)
                0x00002e7c                strlen
 .text          0x00002ed8        0x0 d:/nxp/lpcxpresso_8.2.2_650/lpcxpresso/tools/bin/../lib/gcc/arm-none-eabi/5.4.1/../../../../arm-none-eabi/lib/armv7-m\libc.a(lib_a-strncpy.o)
 .text.strncpy  0x00002ed8       0x68 d:/nxp/lpcxpresso_8.2.2_650/lpcxpresso/tools/bin/../lib/gcc/arm-none-eabi/5.4.1/../../../../arm-none-eabi/lib/armv7-m\libc.a(lib_a-strncpy.o)
                0x00002ed8                strncpy
 .text          0x00002f40        0x0 d:/nxp/lpcxpresso_8.2.2_650/lpcxpresso/tools/bin/../lib/gcc/arm-none-eabi/5.4.1/../../../../arm-none-eabi/lib/armv7-m\libc.a(lib_a-svfprintf.o)
 .text._svfprintf_r
                0x00002f40     0x175c d:/nxp/lpcxpresso_8.2.2_650/lpcxpresso/tools/bin/../lib/gcc/arm-none-eabi/5.4.1/../../../../arm-none-eabi/lib/armv7-m\libc.a(lib_a-svfprintf.o)
                0x00002f40                _svfprintf_r
 .text          0x0000469c        0x0 d:/nxp/lpcxpresso_8.2.2_650/lpcxpresso/tools/bin/../lib/gcc/arm-none-eabi/5.4.1/../../../../arm-none-eabi/lib/armv7-m\libc.a(lib_a-vfprintf.o)
 .text._vfprintf_r
                0x0000469c     0x1788 d:/nxp/lpcxpresso_8.2.2_650/lpcxpresso/tools/bin/../lib/gcc/arm-none-eabi/5.4.1/../../../../arm-none-eabi/lib/armv7-m\libc.a(lib_a-vfprintf.o)
                0x0000469c                _vfprintf_r
 .text.vfprintf
                0x00005e24       0x18 d:/nxp/lpcxpresso_8.2.2_650/lpcxpresso/tools/bin/../lib/gcc/arm-none-eabi/5.4.1/../../../../arm-none-eabi/lib/armv7-m\libc.a(lib_a-vfprintf.o)
                0x00005e24                vfprintf
 .text.__sbprintf
                0x00005e3c       0x6c d:/nxp/lpcxpresso_8.2.2_650/lpcxpresso/tools/bin/../lib/gcc/arm-none-eabi/5.4.1/../../../../arm-none-eabi/lib/armv7-m\libc.a(lib_a-vfprintf.o)
 .text          0x00005ea8        0x0 d:/nxp/lpcxpresso_8.2.2_650/lpcxpresso/tools/bin/../lib/gcc/arm-none-eabi/5.4.1/../../../../arm-none-eabi/lib/armv7-m\libc.a(lib_a-wsetup.o)
 .text.__swsetup_r
                0x00005ea8       0xc8 d:/nxp/lpcxpresso_8.2.2_650/lpcxpresso/tools/bin/../lib/gcc/arm-none-eabi/5.4.1/../../../../arm-none-eabi/lib/armv7-m\libc.a(lib_a-wsetup.o)
                0x00005ea8                __swsetup_r
 .text          0x00005f70        0x0 d:/nxp/lpcxpresso_8.2.2_650/lpcxpresso/tools/bin/../lib/gcc/arm-none-eabi/5.4.1/../../../../arm-none-eabi/lib/armv7-m\libc.a(lib_a-dtoa.o)
 .text.quorem   0x00005f70      0x12c d:/nxp/lpcxpresso_8.2.2_650/lpcxpresso/tools/bin/../lib/gcc/arm-none-eabi/5.4.1/../../../../arm-none-eabi/lib/armv7-m\libc.a(lib_a-dtoa.o)
 *fill*         0x0000609c        0x4 ff
 .text._dtoa_r  0x000060a0      0xe4c d:/nxp/lpcxpresso_8.2.2_650/lpcxpresso/tools/bin/../lib/gcc/arm-none-eabi/5.4.1/../../../../arm-none-eabi/lib/armv7-m\libc.a(lib_a-dtoa.o)
                0x000060a0                _dtoa_r
 .text          0x00006eec        0x0 d:/nxp/lpcxpresso_8.2.2_650/lpcxpresso/tools/bin/../lib/gcc/arm-none-eabi/5.4.1/../../../../arm-none-eabi/lib/armv7-m\libc.a(lib_a-fflush.o)
 .text.__sflush_r
                0x00006eec      0x148 d:/nxp/lpcxpresso_8.2.2_650/lpcxpresso/tools/bin/../lib/gcc/arm-none-eabi/5.4.1/../../../../arm-none-eabi/lib/armv7-m\libc.a(lib_a-fflush.o)
                0x00006eec                __sflush_r
 .text._fflush_r
                0x00007034       0x2c d:/nxp/lpcxpresso_8.2.2_650/lpcxpresso/tools/bin/../lib/gcc/arm-none-eabi/5.4.1/../../../../arm-none-eabi/lib/armv7-m\libc.a(lib_a-fflush.o)
                0x00007034                _fflush_r
 .text.fflush   0x00007060       0x24 d:/nxp/lpcxpresso_8.2.2_650/lpcxpresso/tools/bin/../lib/gcc/arm-none-eabi/5.4.1/../../../../arm-none-eabi/lib/armv7-m\libc.a(lib_a-fflush.o)
                0x00007060                fflush
 .text          0x00007084        0x0 d:/nxp/lpcxpresso_8.2.2_650/lpcxpresso/tools/bin/../lib/gcc/arm-none-eabi/5.4.1/../../../../arm-none-eabi/lib/armv7-m\libc.a(lib_a-findfp.o)
 .text.__fp_unlock
                0x00007084        0x4 d:/nxp/lpcxpresso_8.2.2_650/lpcxpresso/tools/bin/../lib/gcc/arm-none-eabi/5.4.1/../../../../arm-none-eabi/lib/armv7-m\libc.a(lib_a-findfp.o)
 .text._cleanup_r
                0x00007088        0xc d:/nxp/lpcxpresso_8.2.2_650/lpcxpresso/tools/bin/../lib/gcc/arm-none-eabi/5.4.1/../../../../arm-none-eabi/lib/armv7-m\libc.a(lib_a-findfp.o)
                0x00007088                _cleanup_r
 .text.__sinit.part.1
                0x00007094       0xf0 d:/nxp/lpcxpresso_8.2.2_650/lpcxpresso/tools/bin/../lib/gcc/arm-none-eabi/5.4.1/../../../../arm-none-eabi/lib/armv7-m\libc.a(lib_a-findfp.o)
 .text.__fp_lock
                0x00007184        0x4 d:/nxp/lpcxpresso_8.2.2_650/lpcxpresso/tools/bin/../lib/gcc/arm-none-eabi/5.4.1/../../../../arm-none-eabi/lib/armv7-m\libc.a(lib_a-findfp.o)
 .text.__sfmoreglue
                0x00007188       0x30 d:/nxp/lpcxpresso_8.2.2_650/lpcxpresso/tools/bin/../lib/gcc/arm-none-eabi/5.4.1/../../../../arm-none-eabi/lib/armv7-m\libc.a(lib_a-findfp.o)
                0x00007188                __sfmoreglue
 .text.__sfp    0x000071b8       0x88 d:/nxp/lpcxpresso_8.2.2_650/lpcxpresso/tools/bin/../lib/gcc/arm-none-eabi/5.4.1/../../../../arm-none-eabi/lib/armv7-m\libc.a(lib_a-findfp.o)
                0x000071b8                __sfp
 .text._cleanup
                0x00007240       0x14 d:/nxp/lpcxpresso_8.2.2_650/lpcxpresso/tools/bin/../lib/gcc/arm-none-eabi/5.4.1/../../../../arm-none-eabi/lib/armv7-m\libc.a(lib_a-findfp.o)
                0x00007240                _cleanup
 .text.__sinit  0x00007254        0xc d:/nxp/lpcxpresso_8.2.2_650/lpcxpresso/tools/bin/../lib/gcc/arm-none-eabi/5.4.1/../../../../arm-none-eabi/lib/armv7-m\libc.a(lib_a-findfp.o)
                0x00007254                __sinit
 .text.__sfp_lock_acquire
                0x00007260        0x4 d:/nxp/lpcxpresso_8.2.2_650/lpcxpresso/tools/bin/../lib/gcc/arm-none-eabi/5.4.1/../../../../arm-none-eabi/lib/armv7-m\libc.a(lib_a-findfp.o)
                0x00007260                __sfp_lock_acquire
 .text.__sfp_lock_release
                0x00007264        0x4 d:/nxp/lpcxpresso_8.2.2_650/lpcxpresso/tools/bin/../lib/gcc/arm-none-eabi/5.4.1/../../../../arm-none-eabi/lib/armv7-m\libc.a(lib_a-findfp.o)
                0x00007264                __sfp_lock_release
 .text.__sinit_lock_acquire
                0x00007268        0x4 d:/nxp/lpcxpresso_8.2.2_650/lpcxpresso/tools/bin/../lib/gcc/arm-none-eabi/5.4.1/../../../../arm-none-eabi/lib/armv7-m\libc.a(lib_a-findfp.o)
                0x00007268                __sinit_lock_acquire
 .text.__sinit_lock_release
                0x0000726c        0x4 d:/nxp/lpcxpresso_8.2.2_650/lpcxpresso/tools/bin/../lib/gcc/arm-none-eabi/5.4.1/../../../../arm-none-eabi/lib/armv7-m\libc.a(lib_a-findfp.o)
                0x0000726c                __sinit_lock_release
 .text.__fp_lock_all
                0x00007270       0x14 d:/nxp/lpcxpresso_8.2.2_650/lpcxpresso/tools/bin/../lib/gcc/arm-none-eabi/5.4.1/../../../../arm-none-eabi/lib/armv7-m\libc.a(lib_a-findfp.o)
                0x00007270                __fp_lock_all
 .text.__fp_unlock_all
                0x00007284       0x14 d:/nxp/lpcxpresso_8.2.2_650/lpcxpresso/tools/bin/../lib/gcc/arm-none-eabi/5.4.1/../../../../arm-none-eabi/lib/armv7-m\libc.a(lib_a-findfp.o)
                0x00007284                __fp_unlock_all
 .text          0x00007298        0x0 d:/nxp/lpcxpresso_8.2.2_650/lpcxpresso/tools/bin/../lib/gcc/arm-none-eabi/5.4.1/../../../../arm-none-eabi/lib/armv7-m\libc.a(lib_a-fwalk.o)
 .text._fwalk   0x00007298       0x48 d:/nxp/lpcxpresso_8.2.2_650/lpcxpresso/tools/bin/../lib/gcc/arm-none-eabi/5.4.1/../../../../arm-none-eabi/lib/armv7-m\libc.a(lib_a-fwalk.o)
                0x00007298                _fwalk
 .text._fwalk_reent
                0x000072e0       0x50 d:/nxp/lpcxpresso_8.2.2_650/lpcxpresso/tools/bin/../lib/gcc/arm-none-eabi/5.4.1/../../../../arm-none-eabi/lib/armv7-m\libc.a(lib_a-fwalk.o)
                0x000072e0                _fwalk_reent
 .text          0x00007330        0x0 d:/nxp/lpcxpresso_8.2.2_650/lpcxpresso/tools/bin/../lib/gcc/arm-none-eabi/5.4.1/../../../../arm-none-eabi/lib/armv7-m\libc.a(lib_a-impure.o)
 .text          0x00007330        0x0 d:/nxp/lpcxpresso_8.2.2_650/lpcxpresso/tools/bin/../lib/gcc/arm-none-eabi/5.4.1/../../../../arm-none-eabi/lib/armv7-m\libc.a(lib_a-locale.o)
 .text._setlocale_r
                0x00007330       0x40 d:/nxp/lpcxpresso_8.2.2_650/lpcxpresso/tools/bin/../lib/gcc/arm-none-eabi/5.4.1/../../../../arm-none-eabi/lib/armv7-m\libc.a(lib_a-locale.o)
                0x00007330                _setlocale_r
 .text.__locale_charset
                0x00007370        0x8 d:/nxp/lpcxpresso_8.2.2_650/lpcxpresso/tools/bin/../lib/gcc/arm-none-eabi/5.4.1/../../../../arm-none-eabi/lib/armv7-m\libc.a(lib_a-locale.o)
                0x00007370                __locale_charset
 .text.__locale_mb_cur_max
                0x00007378        0xc d:/nxp/lpcxpresso_8.2.2_650/lpcxpresso/tools/bin/../lib/gcc/arm-none-eabi/5.4.1/../../../../arm-none-eabi/lib/armv7-m\libc.a(lib_a-locale.o)
                0x00007378                __locale_mb_cur_max
 .text.__locale_msgcharset
                0x00007384        0x8 d:/nxp/lpcxpresso_8.2.2_650/lpcxpresso/tools/bin/../lib/gcc/arm-none-eabi/5.4.1/../../../../arm-none-eabi/lib/armv7-m\libc.a(lib_a-locale.o)
                0x00007384                __locale_msgcharset
 .text.__locale_cjk_lang
                0x0000738c        0x4 d:/nxp/lpcxpresso_8.2.2_650/lpcxpresso/tools/bin/../lib/gcc/arm-none-eabi/5.4.1/../../../../arm-none-eabi/lib/armv7-m\libc.a(lib_a-locale.o)
                0x0000738c                __locale_cjk_lang
 .text._localeconv_r
                0x00007390        0x8 d:/nxp/lpcxpresso_8.2.2_650/lpcxpresso/tools/bin/../lib/gcc/arm-none-eabi/5.4.1/../../../../arm-none-eabi/lib/armv7-m\libc.a(lib_a-locale.o)
                0x00007390                _localeconv_r
 .text.setlocale
                0x00007398       0x10 d:/nxp/lpcxpresso_8.2.2_650/lpcxpresso/tools/bin/../lib/gcc/arm-none-eabi/5.4.1/../../../../arm-none-eabi/lib/armv7-m\libc.a(lib_a-locale.o)
                0x00007398                setlocale
 .text.localeconv
                0x000073a8        0x8 d:/nxp/lpcxpresso_8.2.2_650/lpcxpresso/tools/bin/../lib/gcc/arm-none-eabi/5.4.1/../../../../arm-none-eabi/lib/armv7-m\libc.a(lib_a-locale.o)
                0x000073a8                localeconv
 .text          0x000073b0        0x0 d:/nxp/lpcxpresso_8.2.2_650/lpcxpresso/tools/bin/../lib/gcc/arm-none-eabi/5.4.1/../../../../arm-none-eabi/lib/armv7-m\libc.a(lib_a-makebuf.o)
 .text.__swhatbuf_r
                0x000073b0       0x60 d:/nxp/lpcxpresso_8.2.2_650/lpcxpresso/tools/bin/../lib/gcc/arm-none-eabi/5.4.1/../../../../arm-none-eabi/lib/armv7-m\libc.a(lib_a-makebuf.o)
                0x000073b0                __swhatbuf_r
 .text.__smakebuf_r
                0x00007410       0x88 d:/nxp/lpcxpresso_8.2.2_650/lpcxpresso/tools/bin/../lib/gcc/arm-none-eabi/5.4.1/../../../../arm-none-eabi/lib/armv7-m\libc.a(lib_a-makebuf.o)
                0x00007410                __smakebuf_r
 .text          0x00007498        0x0 d:/nxp/lpcxpresso_8.2.2_650/lpcxpresso/tools/bin/../lib/gcc/arm-none-eabi/5.4.1/../../../../arm-none-eabi/lib/armv7-m\libc.a(lib_a-memchr-stub.o)
 .text.memchr   0x00007498       0x8c d:/nxp/lpcxpresso_8.2.2_650/lpcxpresso/tools/bin/../lib/gcc/arm-none-eabi/5.4.1/../../../../arm-none-eabi/lib/armv7-m\libc.a(lib_a-memchr-stub.o)
                0x00007498                memchr
 .text          0x00007524        0x0 d:/nxp/lpcxpresso_8.2.2_650/lpcxpresso/tools/bin/../lib/gcc/arm-none-eabi/5.4.1/../../../../arm-none-eabi/lib/armv7-m\libc.a(lib_a-mprec.o)
 .text._Balloc  0x00007524       0x50 d:/nxp/lpcxpresso_8.2.2_650/lpcxpresso/tools/bin/../lib/gcc/arm-none-eabi/5.4.1/../../../../arm-none-eabi/lib/armv7-m\libc.a(lib_a-mprec.o)
                0x00007524                _Balloc
 .text._Bfree   0x00007574       0x14 d:/nxp/lpcxpresso_8.2.2_650/lpcxpresso/tools/bin/../lib/gcc/arm-none-eabi/5.4.1/../../../../arm-none-eabi/lib/armv7-m\libc.a(lib_a-mprec.o)
                0x00007574                _Bfree
 .text.__multadd
                0x00007588       0x80 d:/nxp/lpcxpresso_8.2.2_650/lpcxpresso/tools/bin/../lib/gcc/arm-none-eabi/5.4.1/../../../../arm-none-eabi/lib/armv7-m\libc.a(lib_a-mprec.o)
                0x00007588                __multadd
 .text.__s2b    0x00007608       0x98 d:/nxp/lpcxpresso_8.2.2_650/lpcxpresso/tools/bin/../lib/gcc/arm-none-eabi/5.4.1/../../../../arm-none-eabi/lib/armv7-m\libc.a(lib_a-mprec.o)
                0x00007608                __s2b
 .text.__hi0bits
                0x000076a0       0x40 d:/nxp/lpcxpresso_8.2.2_650/lpcxpresso/tools/bin/../lib/gcc/arm-none-eabi/5.4.1/../../../../arm-none-eabi/lib/armv7-m\libc.a(lib_a-mprec.o)
                0x000076a0                __hi0bits
 .text.__lo0bits
                0x000076e0       0x5c d:/nxp/lpcxpresso_8.2.2_650/lpcxpresso/tools/bin/../lib/gcc/arm-none-eabi/5.4.1/../../../../arm-none-eabi/lib/armv7-m\libc.a(lib_a-mprec.o)
                0x000076e0                __lo0bits
 .text.__i2b    0x0000773c       0x14 d:/nxp/lpcxpresso_8.2.2_650/lpcxpresso/tools/bin/../lib/gcc/arm-none-eabi/5.4.1/../../../../arm-none-eabi/lib/armv7-m\libc.a(lib_a-mprec.o)
                0x0000773c                __i2b
 .text.__multiply
                0x00007750      0x13c d:/nxp/lpcxpresso_8.2.2_650/lpcxpresso/tools/bin/../lib/gcc/arm-none-eabi/5.4.1/../../../../arm-none-eabi/lib/armv7-m\libc.a(lib_a-mprec.o)
                0x00007750                __multiply
 .text.__pow5mult
                0x0000788c       0xa0 d:/nxp/lpcxpresso_8.2.2_650/lpcxpresso/tools/bin/../lib/gcc/arm-none-eabi/5.4.1/../../../../arm-none-eabi/lib/armv7-m\libc.a(lib_a-mprec.o)
                0x0000788c                __pow5mult
 .text.__lshift
                0x0000792c       0xac d:/nxp/lpcxpresso_8.2.2_650/lpcxpresso/tools/bin/../lib/gcc/arm-none-eabi/5.4.1/../../../../arm-none-eabi/lib/armv7-m\libc.a(lib_a-mprec.o)
                0x0000792c                __lshift
 .text.__mcmp   0x000079d8       0x40 d:/nxp/lpcxpresso_8.2.2_650/lpcxpresso/tools/bin/../lib/gcc/arm-none-eabi/5.4.1/../../../../arm-none-eabi/lib/armv7-m\libc.a(lib_a-mprec.o)
                0x000079d8                __mcmp
 .text.__mdiff  0x00007a18      0x128 d:/nxp/lpcxpresso_8.2.2_650/lpcxpresso/tools/bin/../lib/gcc/arm-none-eabi/5.4.1/../../../../arm-none-eabi/lib/armv7-m\libc.a(lib_a-mprec.o)
                0x00007a18                __mdiff
 .text.__ulp    0x00007b40       0x44 d:/nxp/lpcxpresso_8.2.2_650/lpcxpresso/tools/bin/../lib/gcc/arm-none-eabi/5.4.1/../../../../arm-none-eabi/lib/armv7-m\libc.a(lib_a-mprec.o)
                0x00007b40                __ulp
 .text.__b2d    0x00007b84       0xd4 d:/nxp/lpcxpresso_8.2.2_650/lpcxpresso/tools/bin/../lib/gcc/arm-none-eabi/5.4.1/../../../../arm-none-eabi/lib/armv7-m\libc.a(lib_a-mprec.o)
                0x00007b84                __b2d
 .text.__d2b    0x00007c58       0xa8 d:/nxp/lpcxpresso_8.2.2_650/lpcxpresso/tools/bin/../lib/gcc/arm-none-eabi/5.4.1/../../../../arm-none-eabi/lib/armv7-m\libc.a(lib_a-mprec.o)
                0x00007c58                __d2b
 .text.__ratio  0x00007d00       0x54 d:/nxp/lpcxpresso_8.2.2_650/lpcxpresso/tools/bin/../lib/gcc/arm-none-eabi/5.4.1/../../../../arm-none-eabi/lib/armv7-m\libc.a(lib_a-mprec.o)
                0x00007d00                __ratio
 .text._mprec_log10
                0x00007d54       0x34 d:/nxp/lpcxpresso_8.2.2_650/lpcxpresso/tools/bin/../lib/gcc/arm-none-eabi/5.4.1/../../../../arm-none-eabi/lib/armv7-m\libc.a(lib_a-mprec.o)
                0x00007d54                _mprec_log10
 .text.__copybits
                0x00007d88       0x48 d:/nxp/lpcxpresso_8.2.2_650/lpcxpresso/tools/bin/../lib/gcc/arm-none-eabi/5.4.1/../../../../arm-none-eabi/lib/armv7-m\libc.a(lib_a-mprec.o)
                0x00007d88                __copybits
 .text.__any_on
                0x00007dd0       0x5c d:/nxp/lpcxpresso_8.2.2_650/lpcxpresso/tools/bin/../lib/gcc/arm-none-eabi/5.4.1/../../../../arm-none-eabi/lib/armv7-m\libc.a(lib_a-mprec.o)
                0x00007dd0                __any_on
 .text          0x00007e2c        0x0 d:/nxp/lpcxpresso_8.2.2_650/lpcxpresso/tools/bin/../lib/gcc/arm-none-eabi/5.4.1/../../../../arm-none-eabi/lib/armv7-m\libc.a(lib_a-stdio.o)
 .text.__sread  0x00007e2c       0x24 d:/nxp/lpcxpresso_8.2.2_650/lpcxpresso/tools/bin/../lib/gcc/arm-none-eabi/5.4.1/../../../../arm-none-eabi/lib/armv7-m\libc.a(lib_a-stdio.o)
                0x00007e2c                __sread
 .text.__seofread
                0x00007e50        0x4 d:/nxp/lpcxpresso_8.2.2_650/lpcxpresso/tools/bin/../lib/gcc/arm-none-eabi/5.4.1/../../../../arm-none-eabi/lib/armv7-m\libc.a(lib_a-stdio.o)
                0x00007e50                __seofread
 .text.__swrite
                0x00007e54       0x3c d:/nxp/lpcxpresso_8.2.2_650/lpcxpresso/tools/bin/../lib/gcc/arm-none-eabi/5.4.1/../../../../arm-none-eabi/lib/armv7-m\libc.a(lib_a-stdio.o)
                0x00007e54                __swrite
 .text.__sseek  0x00007e90       0x20 d:/nxp/lpcxpresso_8.2.2_650/lpcxpresso/tools/bin/../lib/gcc/arm-none-eabi/5.4.1/../../../../arm-none-eabi/lib/armv7-m\libc.a(lib_a-stdio.o)
                0x00007e90                __sseek
 .text.__sclose
                0x00007eb0        0x8 d:/nxp/lpcxpresso_8.2.2_650/lpcxpresso/tools/bin/../lib/gcc/arm-none-eabi/5.4.1/../../../../arm-none-eabi/lib/armv7-m\libc.a(lib_a-stdio.o)
                0x00007eb0                __sclose
 .text          0x00007eb8      0x1bc d:/nxp/lpcxpresso_8.2.2_650/lpcxpresso/tools/bin/../lib/gcc/arm-none-eabi/5.4.1/../../../../arm-none-eabi/lib/armv7-m\libc.a(lib_a-strcmp.o)
                0x00007eb8                strcmp
 .text          0x00008074        0x0 d:/nxp/lpcxpresso_8.2.2_650/lpcxpresso/tools/bin/../lib/gcc/arm-none-eabi/5.4.1/../../../../arm-none-eabi/lib/armv7-m\libc.a(lib_a-svfiprintf.o)
 .text.__ssprint_r
                0x00008074      0x100 d:/nxp/lpcxpresso_8.2.2_650/lpcxpresso/tools/bin/../lib/gcc/arm-none-eabi/5.4.1/../../../../arm-none-eabi/lib/armv7-m\libc.a(lib_a-svfiprintf.o)
                0x00008074                __ssprint_r
 .text._svfiprintf_r
                0x00008174      0xc4c d:/nxp/lpcxpresso_8.2.2_650/lpcxpresso/tools/bin/../lib/gcc/arm-none-eabi/5.4.1/../../../../arm-none-eabi/lib/armv7-m\libc.a(lib_a-svfiprintf.o)
                0x00008174                _svfiprintf_r
 .text          0x00008dc0        0x0 d:/nxp/lpcxpresso_8.2.2_650/lpcxpresso/tools/bin/../lib/gcc/arm-none-eabi/5.4.1/../../../../arm-none-eabi/lib/armv7-m\libc.a(lib_a-vfiprintf.o)
 .text.__sprint_r.part.0
                0x00008dc0       0x78 d:/nxp/lpcxpresso_8.2.2_650/lpcxpresso/tools/bin/../lib/gcc/arm-none-eabi/5.4.1/../../../../arm-none-eabi/lib/armv7-m\libc.a(lib_a-vfiprintf.o)
 .text.__sprint_r
                0x00008e38       0x14 d:/nxp/lpcxpresso_8.2.2_650/lpcxpresso/tools/bin/../lib/gcc/arm-none-eabi/5.4.1/../../../../arm-none-eabi/lib/armv7-m\libc.a(lib_a-vfiprintf.o)
                0x00008e38                __sprint_r
 .text._vfiprintf_r
                0x00008e4c      0xde8 d:/nxp/lpcxpresso_8.2.2_650/lpcxpresso/tools/bin/../lib/gcc/arm-none-eabi/5.4.1/../../../../arm-none-eabi/lib/armv7-m\libc.a(lib_a-vfiprintf.o)
                0x00008e4c                _vfiprintf_r
 .text.vfiprintf
                0x00009c34       0x18 d:/nxp/lpcxpresso_8.2.2_650/lpcxpresso/tools/bin/../lib/gcc/arm-none-eabi/5.4.1/../../../../arm-none-eabi/lib/armv7-m\libc.a(lib_a-vfiprintf.o)
                0x00009c34                vfiprintf
 .text.__sbprintf
                0x00009c4c       0x6c d:/nxp/lpcxpresso_8.2.2_650/lpcxpresso/tools/bin/../lib/gcc/arm-none-eabi/5.4.1/../../../../arm-none-eabi/lib/armv7-m\libc.a(lib_a-vfiprintf.o)
 .text          0x00009cb8        0x0 d:/nxp/lpcxpresso_8.2.2_650/lpcxpresso/tools/bin/../lib/gcc/arm-none-eabi/5.4.1/../../../../arm-none-eabi/lib/armv7-m\libc.a(lib_a-writer.o)
 .text._write_r
                0x00009cb8       0x2c d:/nxp/lpcxpresso_8.2.2_650/lpcxpresso/tools/bin/../lib/gcc/arm-none-eabi/5.4.1/../../../../arm-none-eabi/lib/armv7-m\libc.a(lib_a-writer.o)
                0x00009cb8                _write_r
 .text          0x00009ce4        0x0 d:/nxp/lpcxpresso_8.2.2_650/lpcxpresso/tools/bin/../lib/gcc/arm-none-eabi/5.4.1/../../../../arm-none-eabi/lib/armv7-m\libc.a(lib_a-closer.o)
 .text._close_r
                0x00009ce4       0x24 d:/nxp/lpcxpresso_8.2.2_650/lpcxpresso/tools/bin/../lib/gcc/arm-none-eabi/5.4.1/../../../../arm-none-eabi/lib/armv7-m\libc.a(lib_a-closer.o)
                0x00009ce4                _close_r
 .text          0x00009d08        0x0 d:/nxp/lpcxpresso_8.2.2_650/lpcxpresso/tools/bin/../lib/gcc/arm-none-eabi/5.4.1/../../../../arm-none-eabi/lib/armv7-m\libc.a(lib_a-fclose.o)
 .text._fclose_r
                0x00009d08       0x84 d:/nxp/lpcxpresso_8.2.2_650/lpcxpresso/tools/bin/../lib/gcc/arm-none-eabi/5.4.1/../../../../arm-none-eabi/lib/armv7-m\libc.a(lib_a-fclose.o)
                0x00009d08                _fclose_r
 .text.fclose   0x00009d8c       0x10 d:/nxp/lpcxpresso_8.2.2_650/lpcxpresso/tools/bin/../lib/gcc/arm-none-eabi/5.4.1/../../../../arm-none-eabi/lib/armv7-m\libc.a(lib_a-fclose.o)
                0x00009d8c                fclose
 .text          0x00009d9c        0x0 d:/nxp/lpcxpresso_8.2.2_650/lpcxpresso/tools/bin/../lib/gcc/arm-none-eabi/5.4.1/../../../../arm-none-eabi/lib/armv7-m\libc.a(lib_a-fputwc.o)
 .text.__fputwc
                0x00009d9c       0x94 d:/nxp/lpcxpresso_8.2.2_650/lpcxpresso/tools/bin/../lib/gcc/arm-none-eabi/5.4.1/../../../../arm-none-eabi/lib/armv7-m\libc.a(lib_a-fputwc.o)
                0x00009d9c                __fputwc
 .text._fputwc_r
                0x00009e30       0x24 d:/nxp/lpcxpresso_8.2.2_650/lpcxpresso/tools/bin/../lib/gcc/arm-none-eabi/5.4.1/../../../../arm-none-eabi/lib/armv7-m\libc.a(lib_a-fputwc.o)
                0x00009e30                _fputwc_r
 .text.fputwc   0x00009e54       0x40 d:/nxp/lpcxpresso_8.2.2_650/lpcxpresso/tools/bin/../lib/gcc/arm-none-eabi/5.4.1/../../../../arm-none-eabi/lib/armv7-m\libc.a(lib_a-fputwc.o)
                0x00009e54                fputwc
 .text          0x00009e94        0x0 d:/nxp/lpcxpresso_8.2.2_650/lpcxpresso/tools/bin/../lib/gcc/arm-none-eabi/5.4.1/../../../../arm-none-eabi/lib/armv7-m\libc.a(lib_a-fstatr.o)
 .text._fstat_r
                0x00009e94       0x28 d:/nxp/lpcxpresso_8.2.2_650/lpcxpresso/tools/bin/../lib/gcc/arm-none-eabi/5.4.1/../../../../arm-none-eabi/lib/armv7-m\libc.a(lib_a-fstatr.o)
                0x00009e94                _fstat_r
 .text          0x00009ebc        0x0 d:/nxp/lpcxpresso_8.2.2_650/lpcxpresso/tools/bin/../lib/gcc/arm-none-eabi/5.4.1/../../../../arm-none-eabi/lib/armv7-m\libc.a(lib_a-fvwrite.o)
 .text.__sfvwrite_r
                0x00009ebc      0x308 d:/nxp/lpcxpresso_8.2.2_650/lpcxpresso/tools/bin/../lib/gcc/arm-none-eabi/5.4.1/../../../../arm-none-eabi/lib/armv7-m\libc.a(lib_a-fvwrite.o)
                0x00009ebc                __sfvwrite_r
 .text          0x0000a1c4        0x0 d:/nxp/lpcxpresso_8.2.2_650/lpcxpresso/tools/bin/../lib/gcc/arm-none-eabi/5.4.1/../../../../arm-none-eabi/lib/armv7-m\libc.a(lib_a-isattyr.o)
 .text._isatty_r
                0x0000a1c4       0x24 d:/nxp/lpcxpresso_8.2.2_650/lpcxpresso/tools/bin/../lib/gcc/arm-none-eabi/5.4.1/../../../../arm-none-eabi/lib/armv7-m\libc.a(lib_a-isattyr.o)
                0x0000a1c4                _isatty_r
 .text          0x0000a1e8        0x0 d:/nxp/lpcxpresso_8.2.2_650/lpcxpresso/tools/bin/../lib/gcc/arm-none-eabi/5.4.1/../../../../arm-none-eabi/lib/armv7-m\libc.a(lib_a-lseekr.o)
 .text._lseek_r
                0x0000a1e8       0x2c d:/nxp/lpcxpresso_8.2.2_650/lpcxpresso/tools/bin/../lib/gcc/arm-none-eabi/5.4.1/../../../../arm-none-eabi/lib/armv7-m\libc.a(lib_a-lseekr.o)
                0x0000a1e8                _lseek_r
 .text          0x0000a214        0x0 d:/nxp/lpcxpresso_8.2.2_650/lpcxpresso/tools/bin/../lib/gcc/arm-none-eabi/5.4.1/../../../../arm-none-eabi/lib/armv7-m\libc.a(lib_a-memmove.o)
 .text.memmove  0x0000a214       0xc8 d:/nxp/lpcxpresso_8.2.2_650/lpcxpresso/tools/bin/../lib/gcc/arm-none-eabi/5.4.1/../../../../arm-none-eabi/lib/armv7-m\libc.a(lib_a-memmove.o)
                0x0000a214                memmove
 .text          0x0000a2dc        0x0 d:/nxp/lpcxpresso_8.2.2_650/lpcxpresso/tools/bin/../lib/gcc/arm-none-eabi/5.4.1/../../../../arm-none-eabi/lib/armv7-m\libc.a(lib_a-readr.o)
 .text._read_r  0x0000a2dc       0x2c d:/nxp/lpcxpresso_8.2.2_650/lpcxpresso/tools/bin/../lib/gcc/arm-none-eabi/5.4.1/../../../../arm-none-eabi/lib/armv7-m\libc.a(lib_a-readr.o)
                0x0000a2dc                _read_r
 .text          0x0000a308        0x0 d:/nxp/lpcxpresso_8.2.2_650/lpcxpresso/tools/bin/../lib/gcc/arm-none-eabi/5.4.1/../../../../arm-none-eabi/lib/armv7-m\libc.a(lib_a-reent.o)
 .text.cleanup_glue
                0x0000a308       0x1c d:/nxp/lpcxpresso_8.2.2_650/lpcxpresso/tools/bin/../lib/gcc/arm-none-eabi/5.4.1/../../../../arm-none-eabi/lib/armv7-m\libc.a(lib_a-reent.o)
                0x0000a308                cleanup_glue
 .text._reclaim_reent
                0x0000a324       0x88 d:/nxp/lpcxpresso_8.2.2_650/lpcxpresso/tools/bin/../lib/gcc/arm-none-eabi/5.4.1/../../../../arm-none-eabi/lib/armv7-m\libc.a(lib_a-reent.o)
                0x0000a324                _reclaim_reent
 .text          0x0000a3ac        0x0 d:/nxp/lpcxpresso_8.2.2_650/lpcxpresso/tools/bin/../lib/gcc/arm-none-eabi/5.4.1/../../../../arm-none-eabi/lib/armv7-m\libc.a(lib_a-wbuf.o)
 .text.__swbuf_r
                0x0000a3ac       0xac d:/nxp/lpcxpresso_8.2.2_650/lpcxpresso/tools/bin/../lib/gcc/arm-none-eabi/5.4.1/../../../../arm-none-eabi/lib/armv7-m\libc.a(lib_a-wbuf.o)
                0x0000a3ac                __swbuf_r
 .text.__swbuf  0x0000a458       0x10 d:/nxp/lpcxpresso_8.2.2_650/lpcxpresso/tools/bin/../lib/gcc/arm-none-eabi/5.4.1/../../../../arm-none-eabi/lib/armv7-m\libc.a(lib_a-wbuf.o)
                0x0000a458                __swbuf
 .text          0x0000a468        0x0 d:/nxp/lpcxpresso_8.2.2_650/lpcxpresso/tools/bin/../lib/gcc/arm-none-eabi/5.4.1/../../../../arm-none-eabi/lib/armv7-m\libc.a(lib_a-wcrtomb.o)
 .text._wcrtomb_r
                0x0000a468       0x54 d:/nxp/lpcxpresso_8.2.2_650/lpcxpresso/tools/bin/../lib/gcc/arm-none-eabi/5.4.1/../../../../arm-none-eabi/lib/armv7-m\libc.a(lib_a-wcrtomb.o)
                0x0000a468                _wcrtomb_r
 .text.wcrtomb  0x0000a4bc       0x58 d:/nxp/lpcxpresso_8.2.2_650/lpcxpresso/tools/bin/../lib/gcc/arm-none-eabi/5.4.1/../../../../arm-none-eabi/lib/armv7-m\libc.a(lib_a-wcrtomb.o)
                0x0000a4bc                wcrtomb
 .text          0x0000a514        0x0 d:/nxp/lpcxpresso_8.2.2_650/lpcxpresso/tools/bin/../lib/gcc/arm-none-eabi/5.4.1/../../../../arm-none-eabi/lib/armv7-m\libc.a(lib_a-wctomb_r.o)
 .text.__ascii_wctomb
                0x0000a514       0x1c d:/nxp/lpcxpresso_8.2.2_650/lpcxpresso/tools/bin/../lib/gcc/arm-none-eabi/5.4.1/../../../../arm-none-eabi/lib/armv7-m\libc.a(lib_a-wctomb_r.o)
                0x0000a514                __ascii_wctomb
 .text._wctomb_r
                0x0000a530       0x30 d:/nxp/lpcxpresso_8.2.2_650/lpcxpresso/tools/bin/../lib/gcc/arm-none-eabi/5.4.1/../../../../arm-none-eabi/lib/armv7-m\libc.a(lib_a-wctomb_r.o)
                0x0000a530                _wctomb_r
 .text          0x0000a560        0x0 d:/nxp/lpcxpresso_8.2.2_650/lpcxpresso/tools/bin/../lib/gcc/arm-none-eabi/5.4.1/../../../../arm-none-eabi/lib/armv7-m\libcr_newlib_semihost.a(syscalls.o)
 .text.error    0x0000a560       0x1c d:/nxp/lpcxpresso_8.2.2_650/lpcxpresso/tools/bin/../lib/gcc/arm-none-eabi/5.4.1/../../../../arm-none-eabi/lib/armv7-m\libcr_newlib_semihost.a(syscalls.o)
 .text.initialise_monitor_handles.part.0
                0x0000a57c       0xa8 d:/nxp/lpcxpresso_8.2.2_650/lpcxpresso/tools/bin/../lib/gcc/arm-none-eabi/5.4.1/../../../../arm-none-eabi/lib/armv7-m\libcr_newlib_semihost.a(syscalls.o)
 .text.findslot
                0x0000a624       0x30 d:/nxp/lpcxpresso_8.2.2_650/lpcxpresso/tools/bin/../lib/gcc/arm-none-eabi/5.4.1/../../../../arm-none-eabi/lib/armv7-m\libcr_newlib_semihost.a(syscalls.o)
 .text.checkerror
                0x0000a654       0x20 d:/nxp/lpcxpresso_8.2.2_650/lpcxpresso/tools/bin/../lib/gcc/arm-none-eabi/5.4.1/../../../../arm-none-eabi/lib/armv7-m\libcr_newlib_semihost.a(syscalls.o)
 .text._swiread
                0x0000a674       0x20 d:/nxp/lpcxpresso_8.2.2_650/lpcxpresso/tools/bin/../lib/gcc/arm-none-eabi/5.4.1/../../../../arm-none-eabi/lib/armv7-m\libcr_newlib_semihost.a(syscalls.o)
                0x0000a674                _swiread
 .text._read    0x0000a694       0x34 d:/nxp/lpcxpresso_8.2.2_650/lpcxpresso/tools/bin/../lib/gcc/arm-none-eabi/5.4.1/../../../../arm-none-eabi/lib/armv7-m\libcr_newlib_semihost.a(syscalls.o)
                0x0000a694                _read
 .text._swilseek
                0x0000a6c8       0x7a d:/nxp/lpcxpresso_8.2.2_650/lpcxpresso/tools/bin/../lib/gcc/arm-none-eabi/5.4.1/../../../../arm-none-eabi/lib/armv7-m\libcr_newlib_semihost.a(syscalls.o)
                0x0000a6c8                _swilseek
 .text._lseek   0x0000a742        0x4 d:/nxp/lpcxpresso_8.2.2_650/lpcxpresso/tools/bin/../lib/gcc/arm-none-eabi/5.4.1/../../../../arm-none-eabi/lib/armv7-m\libcr_newlib_semihost.a(syscalls.o)
                0x0000a742                _lseek
 .text._swiwrite
                0x0000a746       0x20 d:/nxp/lpcxpresso_8.2.2_650/lpcxpresso/tools/bin/../lib/gcc/arm-none-eabi/5.4.1/../../../../arm-none-eabi/lib/armv7-m\libcr_newlib_semihost.a(syscalls.o)
                0x0000a746                _swiwrite
 .text._write   0x0000a766       0x42 d:/nxp/lpcxpresso_8.2.2_650/lpcxpresso/tools/bin/../lib/gcc/arm-none-eabi/5.4.1/../../../../arm-none-eabi/lib/armv7-m\libcr_newlib_semihost.a(syscalls.o)
                0x0000a766                _write
 .text._swiclose
                0x0000a7a8       0x1c d:/nxp/lpcxpresso_8.2.2_650/lpcxpresso/tools/bin/../lib/gcc/arm-none-eabi/5.4.1/../../../../arm-none-eabi/lib/armv7-m\libcr_newlib_semihost.a(syscalls.o)
                0x0000a7a8                _swiclose
 .text._close   0x0000a7c4       0x48 d:/nxp/lpcxpresso_8.2.2_650/lpcxpresso/tools/bin/../lib/gcc/arm-none-eabi/5.4.1/../../../../arm-none-eabi/lib/armv7-m\libcr_newlib_semihost.a(syscalls.o)
                0x0000a7c4                _close
 .text._getpid  0x0000a80c        0x4 d:/nxp/lpcxpresso_8.2.2_650/lpcxpresso/tools/bin/../lib/gcc/arm-none-eabi/5.4.1/../../../../arm-none-eabi/lib/armv7-m\libcr_newlib_semihost.a(syscalls.o)
                0x0000a80c                _getpid
 .text._swistat
                0x0000a810       0x42 d:/nxp/lpcxpresso_8.2.2_650/lpcxpresso/tools/bin/../lib/gcc/arm-none-eabi/5.4.1/../../../../arm-none-eabi/lib/armv7-m\libcr_newlib_semihost.a(syscalls.o)
                0x0000a810                _swistat
 .text._fstat   0x0000a852       0x1c d:/nxp/lpcxpresso_8.2.2_650/lpcxpresso/tools/bin/../lib/gcc/arm-none-eabi/5.4.1/../../../../arm-none-eabi/lib/armv7-m\libcr_newlib_semihost.a(syscalls.o)
                0x0000a852                _fstat
 .text._stat    0x0000a86e       0x3a d:/nxp/lpcxpresso_8.2.2_650/lpcxpresso/tools/bin/../lib/gcc/arm-none-eabi/5.4.1/../../../../arm-none-eabi/lib/armv7-m\libcr_newlib_semihost.a(syscalls.o)
                0x0000a86e                _stat
 .text._swiopen
                0x0000a8a8       0xc8 d:/nxp/lpcxpresso_8.2.2_650/lpcxpresso/tools/bin/../lib/gcc/arm-none-eabi/5.4.1/../../../../arm-none-eabi/lib/armv7-m\libcr_newlib_semihost.a(syscalls.o)
                0x0000a8a8                _swiopen
 .text._open    0x0000a970       0x12 d:/nxp/lpcxpresso_8.2.2_650/lpcxpresso/tools/bin/../lib/gcc/arm-none-eabi/5.4.1/../../../../arm-none-eabi/lib/armv7-m\libcr_newlib_semihost.a(syscalls.o)
                0x0000a970                _open
 .text._link    0x0000a982       0x10 d:/nxp/lpcxpresso_8.2.2_650/lpcxpresso/tools/bin/../lib/gcc/arm-none-eabi/5.4.1/../../../../arm-none-eabi/lib/armv7-m\libcr_newlib_semihost.a(syscalls.o)
                0x0000a982                _link
 .text._unlink  0x0000a992       0x28 d:/nxp/lpcxpresso_8.2.2_650/lpcxpresso/tools/bin/../lib/gcc/arm-none-eabi/5.4.1/../../../../arm-none-eabi/lib/armv7-m\libcr_newlib_semihost.a(syscalls.o)
                0x0000a992                _unlink
 .text._gettimeofday
                0x0000a9ba       0x24 d:/nxp/lpcxpresso_8.2.2_650/lpcxpresso/tools/bin/../lib/gcc/arm-none-eabi/5.4.1/../../../../arm-none-eabi/lib/armv7-m\libcr_newlib_semihost.a(syscalls.o)
                0x0000a9ba                _gettimeofday
 .text._clock   0x0000a9de       0x12 d:/nxp/lpcxpresso_8.2.2_650/lpcxpresso/tools/bin/../lib/gcc/arm-none-eabi/5.4.1/../../../../arm-none-eabi/lib/armv7-m\libcr_newlib_semihost.a(syscalls.o)
                0x0000a9de                _clock
 .text._times   0x0000a9f0       0x16 d:/nxp/lpcxpresso_8.2.2_650/lpcxpresso/tools/bin/../lib/gcc/arm-none-eabi/5.4.1/../../../../arm-none-eabi/lib/armv7-m\libcr_newlib_semihost.a(syscalls.o)
                0x0000a9f0                _times
 .text._isatty  0x0000aa06       0x2a d:/nxp/lpcxpresso_8.2.2_650/lpcxpresso/tools/bin/../lib/gcc/arm-none-eabi/5.4.1/../../../../arm-none-eabi/lib/armv7-m\libcr_newlib_semihost.a(syscalls.o)
                0x0000aa06                _isatty
 .text._system  0x0000aa30       0x3c d:/nxp/lpcxpresso_8.2.2_650/lpcxpresso/tools/bin/../lib/gcc/arm-none-eabi/5.4.1/../../../../arm-none-eabi/lib/armv7-m\libcr_newlib_semihost.a(syscalls.o)
                0x0000aa30                _system
 .text._rename  0x0000aa6c       0x36 d:/nxp/lpcxpresso_8.2.2_650/lpcxpresso/tools/bin/../lib/gcc/arm-none-eabi/5.4.1/../../../../arm-none-eabi/lib/armv7-m\libcr_newlib_semihost.a(syscalls.o)
                0x0000aa6c                _rename
 *fill*         0x0000aaa2        0x2 ff
 .text          0x0000aaa4      0x424 d:/nxp/lpcxpresso_8.2.2_650/lpcxpresso/tools/bin/../lib/gcc/arm-none-eabi/5.4.1/armv7-m\libgcc.a(_arm_muldivdf3.o)
                0x0000aaa4                __aeabi_dmul
                0x0000aaa4                __muldf3
                0x0000acf8                __divdf3
                0x0000acf8                __aeabi_ddiv
 .text          0x0000aec8      0x110 d:/nxp/lpcxpresso_8.2.2_650/lpcxpresso/tools/bin/../lib/gcc/arm-none-eabi/5.4.1/armv7-m\libgcc.a(_arm_cmpdf2.o)
                0x0000aec8                __gtdf2
                0x0000aec8                __gedf2
                0x0000aed0                __ltdf2
                0x0000aed0                __ledf2
                0x0000aed8                __nedf2
                0x0000aed8                __eqdf2
                0x0000aed8                __cmpdf2
                0x0000af54                __aeabi_cdrcmple
                0x0000af64                __aeabi_cdcmpeq
                0x0000af64                __aeabi_cdcmple
                0x0000af74                __aeabi_dcmpeq
                0x0000af88                __aeabi_dcmplt
                0x0000af9c                __aeabi_dcmple
                0x0000afb0                __aeabi_dcmpge
                0x0000afc4                __aeabi_dcmpgt
 .text          0x0000afd8       0x2c d:/nxp/lpcxpresso_8.2.2_650/lpcxpresso/tools/bin/../lib/gcc/arm-none-eabi/5.4.1/armv7-m\libgcc.a(_arm_unorddf2.o)
                0x0000afd8                __unorddf2
                0x0000afd8                __aeabi_dcmpun
 .text          0x0000b004       0x50 d:/nxp/lpcxpresso_8.2.2_650/lpcxpresso/tools/bin/../lib/gcc/arm-none-eabi/5.4.1/armv7-m\libgcc.a(_arm_fixdfsi.o)
                0x0000b004                __aeabi_d2iz
                0x0000b004                __fixdfsi
 .text          0x0000b054       0x30 d:/nxp/lpcxpresso_8.2.2_650/lpcxpresso/tools/bin/../lib/gcc/arm-none-eabi/5.4.1/armv7-m\libgcc.a(_aeabi_uldivmod.o)
                0x0000b054                __aeabi_uldivmod
 .text          0x0000b084      0x2ec d:/nxp/lpcxpresso_8.2.2_650/lpcxpresso/tools/bin/../lib/gcc/arm-none-eabi/5.4.1/armv7-m\libgcc.a(_udivmoddi4.o)
                0x0000b084                __udivmoddi4
 .text          0x0000b370        0x4 d:/nxp/lpcxpresso_8.2.2_650/lpcxpresso/tools/bin/../lib/gcc/arm-none-eabi/5.4.1/armv7-m\libgcc.a(_dvmd_tls.o)
                0x0000b370                __aeabi_idiv0
                0x0000b370                __aeabi_ldiv0
 .text          0x0000b374        0x0 d:/nxp/lpcxpresso_8.2.2_650/lpcxpresso/tools/bin/../lib/gcc/arm-none-eabi/5.4.1/../../../../arm-none-eabi/lib/armv7-m\libc.a(lib_a-errno.o)
 .text.__errno  0x0000b374        0xc d:/nxp/lpcxpresso_8.2.2_650/lpcxpresso/tools/bin/../lib/gcc/arm-none-eabi/5.4.1/../../../../arm-none-eabi/lib/armv7-m\libc.a(lib_a-errno.o)
                0x0000b374                __errno
 *(.rodata .rodata.* .constdata .constdata.*)
 .rodata.str1.1
                0x0000b380       0x4e ./src/pi7/interpretador_comando/interpretador_comando.o
 .rodata.str1.1
                0x0000b3ce       0x22 ./src/pi7/controlador_trajetoria/controlador_trajetoria.o
 .rodata.str1.1
                0x0000b3f0       0x10 ./src/pi7/comunicacao_pic/comunicacao_pic.o
 .rodata.str1.1
                0x0000b400       0x1e ./src/pi7/comunicacao_pc/modbus.o
 .rodata.str1.1
                0x0000b41e        0xb ./src/drivers/console/basic_io.o
 *fill*         0x0000b429        0x3 ff
 .rodata.DELAY_1MS
                0x0000b42c        0x4 ./src/main.o
                0x0000b42c                DELAY_1MS
 .rodata.DELAY_1SEC
                0x0000b430        0x4 ./src/main.o
                0x0000b430                DELAY_1SEC
 .rodata.DELAY_500MS
                0x0000b434        0x4 ./src/main.o
                0x0000b434                DELAY_500MS
 .rodata.str1.1
                0x0000b438       0x46 ./src/main.o
 *fill*         0x0000b47e        0x2 ff
 .rodata.DELAY_200MS
                0x0000b480        0x4 ./src/main.o
                0x0000b480                DELAY_200MS
 .rodata.str1.1
                0x0000b484       0x17 ./FreeRTOS_src/tasks.o
                                 0x1a (size before relaxing)
 *fill*         0x0000b49b        0x1 ff
 .rodata.ulKernelPriority
                0x0000b49c        0x4 ./FreeRTOS_portable/port.o
                0x0000b49c                ulKernelPriority
 .rodata.blanks.7055
                0x0000b4a0       0x10 d:/nxp/lpcxpresso_8.2.2_650/lpcxpresso/tools/bin/../lib/gcc/arm-none-eabi/5.4.1/../../../../arm-none-eabi/lib/armv7-m\libc.a(lib_a-svfprintf.o)
 .rodata.str1.4
                0x0000b4b0       0x42 d:/nxp/lpcxpresso_8.2.2_650/lpcxpresso/tools/bin/../lib/gcc/arm-none-eabi/5.4.1/../../../../arm-none-eabi/lib/armv7-m\libc.a(lib_a-svfprintf.o)
 *fill*         0x0000b4f2        0x2 ff
 .rodata.zeroes.7056
                0x0000b4f4       0x10 d:/nxp/lpcxpresso_8.2.2_650/lpcxpresso/tools/bin/../lib/gcc/arm-none-eabi/5.4.1/../../../../arm-none-eabi/lib/armv7-m\libc.a(lib_a-svfprintf.o)
 .rodata.blanks.7070
                0x0000b504       0x10 d:/nxp/lpcxpresso_8.2.2_650/lpcxpresso/tools/bin/../lib/gcc/arm-none-eabi/5.4.1/../../../../arm-none-eabi/lib/armv7-m\libc.a(lib_a-vfprintf.o)
 .rodata.str1.4
                0x0000b514       0x42 d:/nxp/lpcxpresso_8.2.2_650/lpcxpresso/tools/bin/../lib/gcc/arm-none-eabi/5.4.1/../../../../arm-none-eabi/lib/armv7-m\libc.a(lib_a-vfprintf.o)
 .rodata.zeroes.7071
                0x0000b514       0x10 d:/nxp/lpcxpresso_8.2.2_650/lpcxpresso/tools/bin/../lib/gcc/arm-none-eabi/5.4.1/../../../../arm-none-eabi/lib/armv7-m\libc.a(lib_a-vfprintf.o)
 .rodata.str1.4
                0x0000b524       0x10 d:/nxp/lpcxpresso_8.2.2_650/lpcxpresso/tools/bin/../lib/gcc/arm-none-eabi/5.4.1/../../../../arm-none-eabi/lib/armv7-m\libc.a(lib_a-dtoa.o)
                                 0x12 (size before relaxing)
 .rodata.str1.4
                0x0000b534        0x2 d:/nxp/lpcxpresso_8.2.2_650/lpcxpresso/tools/bin/../lib/gcc/arm-none-eabi/5.4.1/../../../../arm-none-eabi/lib/armv7-m\libc.a(lib_a-impure.o)
 *fill*         0x0000b536        0x2 ff
 .rodata._global_impure_ptr
                0x0000b538        0x4 d:/nxp/lpcxpresso_8.2.2_650/lpcxpresso/tools/bin/../lib/gcc/arm-none-eabi/5.4.1/../../../../arm-none-eabi/lib/armv7-m\libc.a(lib_a-impure.o)
                0x0000b538                _global_impure_ptr
 .rodata.str1.4
                0x0000b53c        0xc d:/nxp/lpcxpresso_8.2.2_650/lpcxpresso/tools/bin/../lib/gcc/arm-none-eabi/5.4.1/../../../../arm-none-eabi/lib/armv7-m\libc.a(lib_a-locale.o)
                                 0x12 (size before relaxing)
 .rodata.__mprec_tens
                0x0000b548       0xc8 d:/nxp/lpcxpresso_8.2.2_650/lpcxpresso/tools/bin/../lib/gcc/arm-none-eabi/5.4.1/../../../../arm-none-eabi/lib/armv7-m\libc.a(lib_a-mprec.o)
                0x0000b548                __mprec_tens
 .rodata.__mprec_bigtens
                0x0000b610       0x28 d:/nxp/lpcxpresso_8.2.2_650/lpcxpresso/tools/bin/../lib/gcc/arm-none-eabi/5.4.1/../../../../arm-none-eabi/lib/armv7-m\libc.a(lib_a-mprec.o)
                0x0000b610                __mprec_bigtens
 .rodata.__mprec_tinytens
                0x0000b638       0x28 d:/nxp/lpcxpresso_8.2.2_650/lpcxpresso/tools/bin/../lib/gcc/arm-none-eabi/5.4.1/../../../../arm-none-eabi/lib/armv7-m\libc.a(lib_a-mprec.o)
                0x0000b638                __mprec_tinytens
 .rodata.p05.5396
                0x0000b660        0xc d:/nxp/lpcxpresso_8.2.2_650/lpcxpresso/tools/bin/../lib/gcc/arm-none-eabi/5.4.1/../../../../arm-none-eabi/lib/armv7-m\libc.a(lib_a-mprec.o)
 .rodata.blanks.6999
                0x0000b66c       0x10 d:/nxp/lpcxpresso_8.2.2_650/lpcxpresso/tools/bin/../lib/gcc/arm-none-eabi/5.4.1/../../../../arm-none-eabi/lib/armv7-m\libc.a(lib_a-svfiprintf.o)
 .rodata.str1.4
                0x0000b67c       0x2f d:/nxp/lpcxpresso_8.2.2_650/lpcxpresso/tools/bin/../lib/gcc/arm-none-eabi/5.4.1/../../../../arm-none-eabi/lib/armv7-m\libc.a(lib_a-svfiprintf.o)
 .rodata.zeroes.7000
                0x0000b67c       0x10 d:/nxp/lpcxpresso_8.2.2_650/lpcxpresso/tools/bin/../lib/gcc/arm-none-eabi/5.4.1/../../../../arm-none-eabi/lib/armv7-m\libc.a(lib_a-svfiprintf.o)
 .rodata.blanks.7013
                0x0000b68c       0x10 d:/nxp/lpcxpresso_8.2.2_650/lpcxpresso/tools/bin/../lib/gcc/arm-none-eabi/5.4.1/../../../../arm-none-eabi/lib/armv7-m\libc.a(lib_a-vfiprintf.o)
 .rodata.str1.4
                0x0000b69c       0x2f d:/nxp/lpcxpresso_8.2.2_650/lpcxpresso/tools/bin/../lib/gcc/arm-none-eabi/5.4.1/../../../../arm-none-eabi/lib/armv7-m\libc.a(lib_a-vfiprintf.o)
 .rodata.zeroes.7014
                0x0000b69c       0x10 d:/nxp/lpcxpresso_8.2.2_650/lpcxpresso/tools/bin/../lib/gcc/arm-none-eabi/5.4.1/../../../../arm-none-eabi/lib/armv7-m\libc.a(lib_a-vfiprintf.o)
 .rodata.str1.1
                0x0000b6ac        0x4 d:/nxp/lpcxpresso_8.2.2_650/lpcxpresso/tools/bin/../lib/gcc/arm-none-eabi/5.4.1/../../../../arm-none-eabi/lib/armv7-m\libcr_newlib_semihost.a(syscalls.o)
                0x0000b6cc                . = ALIGN (0x4)

.glue_7         0x0000b6b0        0x0
 .glue_7        0x0000b6b0        0x0 linker stubs

.glue_7t        0x0000b6b0        0x0
 .glue_7t       0x0000b6b0        0x0 linker stubs

.vfp11_veneer   0x0000b6b0        0x0
 .vfp11_veneer  0x0000b6b0        0x0 linker stubs

.v4_bx          0x0000b6b0        0x0
 .v4_bx         0x0000b6b0        0x0 linker stubs

.iplt           0x0000b6b0        0x0
 .iplt          0x0000b6b0        0x0 ./src/pi7/programa_trajetoria/programa_trajetoria.o

.ARM.extab      0x0000b6b0        0x0
 *(.ARM.extab* .gnu.linkonce.armextab.*)
 .ARM.extab     0x0000b6b0        0x0 d:/nxp/lpcxpresso_8.2.2_650/lpcxpresso/tools/bin/../lib/gcc/arm-none-eabi/5.4.1/armv7-m\libgcc.a(_udivmoddi4.o)
                0x0000b6b0                __exidx_start = .

.ARM.exidx      0x0000b6b0        0x8
 *(.ARM.exidx* .gnu.linkonce.armexidx.*)
 .ARM.exidx     0x0000b6b0        0x8 d:/nxp/lpcxpresso_8.2.2_650/lpcxpresso/tools/bin/../lib/gcc/arm-none-eabi/5.4.1/armv7-m\libgcc.a(_udivmoddi4.o)
                0x0000b6b8                __exidx_end = .
                0x0000b6b8                _etext = .

.rel.dyn        0x0000b6b8        0x0
 .rel.iplt      0x0000b6b8        0x0 ./src/pi7/programa_trajetoria/programa_trajetoria.o

.data_RAM2      0x2007c000        0x0 load address 0x0000b6b8
 FILL mask 0xff
                [!provide]                PROVIDE (__start_data_RAM2, .)
 *(.ramfunc.$RAM2)
 *(.ramfunc.$RamAHB32)
 *(.data.$RAM2*)
 *(.data.$RamAHB32*)
                0x2007c000                . = ALIGN (0x4)
                [!provide]                PROVIDE (__end_data_RAM2, .)

.uninit_RESERVED
                0x10000000        0x0
 *(.bss.$RESERVED*)
                0x10000000                . = ALIGN (0x4)
                0x10000000                _end_uninit_RESERVED = .

.data           0x10000000      0x4ec load address 0x0000b6b8
 FILL mask 0xff
                0x10000000                _data = .
 *(vtable)
 *(.ramfunc*)
 *(.data*)
 .data          0x10000000        0x0 ./src/pi7/programa_trajetoria/programa_trajetoria.o
 .data          0x10000000        0x0 ./src/pi7/interpretador_comando/interpretador_comando.o
 .data          0x10000000        0x0 ./src/pi7/estado_trajetoria/estado_trajetoria.o
 .data.stt_x    0x10000000        0x4 ./src/pi7/estado_trajetoria/estado_trajetoria.o
                0x10000000                stt_x
 .data.stt_y    0x10000004        0x4 ./src/pi7/estado_trajetoria/estado_trajetoria.o
                0x10000004                stt_y
 .data.stt_z    0x10000008        0x4 ./src/pi7/estado_trajetoria/estado_trajetoria.o
                0x10000008                stt_z
 .data          0x1000000c        0x0 ./src/pi7/controlador_trajetoria/controlador_trajetoria.o
 .data          0x1000000c        0x0 ./src/pi7/comunicacao_pic/comunicacao_pic.o
 .data          0x1000000c        0x0 ./src/pi7/comunicacao_pc/modbus.o
 .data          0x1000000c        0x0 ./src/drivers/uart/uart.o
 .data.UART0TxEmpty
                0x1000000c        0x1 ./src/drivers/uart/uart.o
                0x1000000c                UART0TxEmpty
 .data.UART1TxEmpty
                0x1000000d        0x1 ./src/drivers/uart/uart.o
                0x1000000d                UART1TxEmpty
 .data          0x1000000e        0x0 ./src/drivers/pwm/pwm.o
 .data          0x1000000e        0x0 ./src/drivers/ledonboard/leds.o
 .data          0x1000000e        0x0 ./src/drivers/console/alloc.o
 .data          0x1000000e        0x0 ./src/drivers/console/basic_io.o
 .data          0x1000000e        0x0 ./src/drivers/console/consoleprint.o
 .data          0x1000000e        0x0 ./src/cr_startup_lpc17.o
 .data          0x1000000e        0x0 ./src/main.o
 .data.msgReadRegister
                0x1000000e        0xd ./src/main.o
                0x1000000e                msgReadRegister
 .data.msgWriteRegister
                0x1000001b        0xf ./src/main.o
                0x1000001b                msgWriteRegister
 .data          0x1000002a        0x0 ./FreeRTOS_src/croutine.o
 .data          0x1000002a        0x0 ./FreeRTOS_src/list.o
 .data          0x1000002a        0x0 ./FreeRTOS_src/queue.o
 .data          0x1000002a        0x0 ./FreeRTOS_src/tasks.o
 *fill*         0x1000002a        0x2 ff
 .data.uxPreviousTask
                0x1000002c        0x4 ./FreeRTOS_src/tasks.o
 .data.xNextTaskUnblockTime
                0x10000030        0x4 ./FreeRTOS_src/tasks.o
 .data          0x10000034        0x0 ./FreeRTOS_src/timers.o
 .data          0x10000034        0x0 ./FreeRTOS_portable/MemMang/heap_2.o
 .data.xFreeBytesRemaining
                0x10000034        0x4 ./FreeRTOS_portable/MemMang/heap_2.o
 .data          0x10000038        0x0 ./FreeRTOS_portable/port.o
 .data.uxCriticalNesting
                0x10000038        0x4 ./FreeRTOS_portable/port.o
 .data          0x1000003c        0x4 ../Libraries\libCMSISv2_LPC17xx.a(system_LPC17xx.o)
                0x1000003c                SystemFrequency
 .data          0x10000040        0x0 d:/nxp/lpcxpresso_8.2.2_650/lpcxpresso/tools/bin/../lib/gcc/arm-none-eabi/5.4.1/armv7-m\libgcc.a(_arm_addsubdf3.o)
 .data          0x10000040        0x0 d:/nxp/lpcxpresso_8.2.2_650/lpcxpresso/tools/bin/../lib/gcc/arm-none-eabi/5.4.1/armv7-m\libgcc.a(_arm_fixsfsi.o)
 .data          0x10000040        0x0 d:/nxp/lpcxpresso_8.2.2_650/lpcxpresso/tools/bin/../lib/gcc/arm-none-eabi/5.4.1/../../../../arm-none-eabi/lib/armv7-m\libc.a(lib_a-memcpy.o)
 .data          0x10000040        0x0 d:/nxp/lpcxpresso_8.2.2_650/lpcxpresso/tools/bin/../lib/gcc/arm-none-eabi/5.4.1/../../../../arm-none-eabi/lib/armv7-m\libc.a(lib_a-memset.o)
 .data          0x10000040        0x0 d:/nxp/lpcxpresso_8.2.2_650/lpcxpresso/tools/bin/../lib/gcc/arm-none-eabi/5.4.1/../../../../arm-none-eabi/lib/armv7-m\libc.a(lib_a-printf.o)
 .data          0x10000040        0x0 d:/nxp/lpcxpresso_8.2.2_650/lpcxpresso/tools/bin/../lib/gcc/arm-none-eabi/5.4.1/../../../../arm-none-eabi/lib/armv7-m\libc.a(lib_a-sprintf.o)
 .data          0x10000040        0x0 d:/nxp/lpcxpresso_8.2.2_650/lpcxpresso/tools/bin/../lib/gcc/arm-none-eabi/5.4.1/../../../../arm-none-eabi/lib/armv7-m\libc.a(lib_a-strcat.o)
 .data          0x10000040        0x0 d:/nxp/lpcxpresso_8.2.2_650/lpcxpresso/tools/bin/../lib/gcc/arm-none-eabi/5.4.1/../../../../arm-none-eabi/lib/armv7-m\libc.a(lib_a-strcpy.o)
 .data          0x10000040        0x0 d:/nxp/lpcxpresso_8.2.2_650/lpcxpresso/tools/bin/../lib/gcc/arm-none-eabi/5.4.1/../../../../arm-none-eabi/lib/armv7-m\libc.a(lib_a-strlen-stub.o)
 .data          0x10000040        0x0 d:/nxp/lpcxpresso_8.2.2_650/lpcxpresso/tools/bin/../lib/gcc/arm-none-eabi/5.4.1/../../../../arm-none-eabi/lib/armv7-m\libc.a(lib_a-strncpy.o)
 .data          0x10000040        0x0 d:/nxp/lpcxpresso_8.2.2_650/lpcxpresso/tools/bin/../lib/gcc/arm-none-eabi/5.4.1/../../../../arm-none-eabi/lib/armv7-m\libc.a(lib_a-svfprintf.o)
 .data          0x10000040        0x0 d:/nxp/lpcxpresso_8.2.2_650/lpcxpresso/tools/bin/../lib/gcc/arm-none-eabi/5.4.1/../../../../arm-none-eabi/lib/armv7-m\libc.a(lib_a-vfprintf.o)
 .data          0x10000040        0x0 d:/nxp/lpcxpresso_8.2.2_650/lpcxpresso/tools/bin/../lib/gcc/arm-none-eabi/5.4.1/../../../../arm-none-eabi/lib/armv7-m\libc.a(lib_a-wsetup.o)
 .data          0x10000040        0x0 d:/nxp/lpcxpresso_8.2.2_650/lpcxpresso/tools/bin/../lib/gcc/arm-none-eabi/5.4.1/../../../../arm-none-eabi/lib/armv7-m\libc.a(lib_a-dtoa.o)
 .data          0x10000040        0x0 d:/nxp/lpcxpresso_8.2.2_650/lpcxpresso/tools/bin/../lib/gcc/arm-none-eabi/5.4.1/../../../../arm-none-eabi/lib/armv7-m\libc.a(lib_a-fflush.o)
 .data          0x10000040        0x0 d:/nxp/lpcxpresso_8.2.2_650/lpcxpresso/tools/bin/../lib/gcc/arm-none-eabi/5.4.1/../../../../arm-none-eabi/lib/armv7-m\libc.a(lib_a-findfp.o)
 .data          0x10000040        0x0 d:/nxp/lpcxpresso_8.2.2_650/lpcxpresso/tools/bin/../lib/gcc/arm-none-eabi/5.4.1/../../../../arm-none-eabi/lib/armv7-m\libc.a(lib_a-fwalk.o)
 .data          0x10000040        0x0 d:/nxp/lpcxpresso_8.2.2_650/lpcxpresso/tools/bin/../lib/gcc/arm-none-eabi/5.4.1/../../../../arm-none-eabi/lib/armv7-m\libc.a(lib_a-impure.o)
 .data.impure_data
                0x10000040      0x428 d:/nxp/lpcxpresso_8.2.2_650/lpcxpresso/tools/bin/../lib/gcc/arm-none-eabi/5.4.1/../../../../arm-none-eabi/lib/armv7-m\libc.a(lib_a-impure.o)
 .data._impure_ptr
                0x10000468        0x4 d:/nxp/lpcxpresso_8.2.2_650/lpcxpresso/tools/bin/../lib/gcc/arm-none-eabi/5.4.1/../../../../arm-none-eabi/lib/armv7-m\libc.a(lib_a-impure.o)
                0x10000468                _impure_ptr
 .data          0x1000046c        0x0 d:/nxp/lpcxpresso_8.2.2_650/lpcxpresso/tools/bin/../lib/gcc/arm-none-eabi/5.4.1/../../../../arm-none-eabi/lib/armv7-m\libc.a(lib_a-locale.o)
 .data.lc_message_charset
                0x1000046c       0x20 d:/nxp/lpcxpresso_8.2.2_650/lpcxpresso/tools/bin/../lib/gcc/arm-none-eabi/5.4.1/../../../../arm-none-eabi/lib/armv7-m\libc.a(lib_a-locale.o)
 .data.lconv    0x1000048c       0x38 d:/nxp/lpcxpresso_8.2.2_650/lpcxpresso/tools/bin/../lib/gcc/arm-none-eabi/5.4.1/../../../../arm-none-eabi/lib/armv7-m\libc.a(lib_a-locale.o)
 .data.lc_ctype_charset
                0x100004c4       0x20 d:/nxp/lpcxpresso_8.2.2_650/lpcxpresso/tools/bin/../lib/gcc/arm-none-eabi/5.4.1/../../../../arm-none-eabi/lib/armv7-m\libc.a(lib_a-locale.o)
 .data.__mb_cur_max
                0x100004e4        0x4 d:/nxp/lpcxpresso_8.2.2_650/lpcxpresso/tools/bin/../lib/gcc/arm-none-eabi/5.4.1/../../../../arm-none-eabi/lib/armv7-m\libc.a(lib_a-locale.o)
                0x100004e4                __mb_cur_max
 .data          0x100004e8        0x0 d:/nxp/lpcxpresso_8.2.2_650/lpcxpresso/tools/bin/../lib/gcc/arm-none-eabi/5.4.1/../../../../arm-none-eabi/lib/armv7-m\libc.a(lib_a-makebuf.o)
 .data          0x100004e8        0x0 d:/nxp/lpcxpresso_8.2.2_650/lpcxpresso/tools/bin/../lib/gcc/arm-none-eabi/5.4.1/../../../../arm-none-eabi/lib/armv7-m\libc.a(lib_a-memchr-stub.o)
 .data          0x100004e8        0x0 d:/nxp/lpcxpresso_8.2.2_650/lpcxpresso/tools/bin/../lib/gcc/arm-none-eabi/5.4.1/../../../../arm-none-eabi/lib/armv7-m\libc.a(lib_a-mprec.o)
 .data          0x100004e8        0x0 d:/nxp/lpcxpresso_8.2.2_650/lpcxpresso/tools/bin/../lib/gcc/arm-none-eabi/5.4.1/../../../../arm-none-eabi/lib/armv7-m\libc.a(lib_a-stdio.o)
 .data          0x100004e8        0x0 d:/nxp/lpcxpresso_8.2.2_650/lpcxpresso/tools/bin/../lib/gcc/arm-none-eabi/5.4.1/../../../../arm-none-eabi/lib/armv7-m\libc.a(lib_a-strcmp.o)
 .data          0x100004e8        0x0 d:/nxp/lpcxpresso_8.2.2_650/lpcxpresso/tools/bin/../lib/gcc/arm-none-eabi/5.4.1/../../../../arm-none-eabi/lib/armv7-m\libc.a(lib_a-svfiprintf.o)
 .data          0x100004e8        0x0 d:/nxp/lpcxpresso_8.2.2_650/lpcxpresso/tools/bin/../lib/gcc/arm-none-eabi/5.4.1/../../../../arm-none-eabi/lib/armv7-m\libc.a(lib_a-vfiprintf.o)
 .data          0x100004e8        0x0 d:/nxp/lpcxpresso_8.2.2_650/lpcxpresso/tools/bin/../lib/gcc/arm-none-eabi/5.4.1/../../../../arm-none-eabi/lib/armv7-m\libc.a(lib_a-writer.o)
 .data          0x100004e8        0x0 d:/nxp/lpcxpresso_8.2.2_650/lpcxpresso/tools/bin/../lib/gcc/arm-none-eabi/5.4.1/../../../../arm-none-eabi/lib/armv7-m\libc.a(lib_a-closer.o)
 .data          0x100004e8        0x0 d:/nxp/lpcxpresso_8.2.2_650/lpcxpresso/tools/bin/../lib/gcc/arm-none-eabi/5.4.1/../../../../arm-none-eabi/lib/armv7-m\libc.a(lib_a-fclose.o)
 .data          0x100004e8        0x0 d:/nxp/lpcxpresso_8.2.2_650/lpcxpresso/tools/bin/../lib/gcc/arm-none-eabi/5.4.1/../../../../arm-none-eabi/lib/armv7-m\libc.a(lib_a-fputwc.o)
 .data          0x100004e8        0x0 d:/nxp/lpcxpresso_8.2.2_650/lpcxpresso/tools/bin/../lib/gcc/arm-none-eabi/5.4.1/../../../../arm-none-eabi/lib/armv7-m\libc.a(lib_a-fstatr.o)
 .data          0x100004e8        0x0 d:/nxp/lpcxpresso_8.2.2_650/lpcxpresso/tools/bin/../lib/gcc/arm-none-eabi/5.4.1/../../../../arm-none-eabi/lib/armv7-m\libc.a(lib_a-fvwrite.o)
 .data          0x100004e8        0x0 d:/nxp/lpcxpresso_8.2.2_650/lpcxpresso/tools/bin/../lib/gcc/arm-none-eabi/5.4.1/../../../../arm-none-eabi/lib/armv7-m\libc.a(lib_a-isattyr.o)
 .data          0x100004e8        0x0 d:/nxp/lpcxpresso_8.2.2_650/lpcxpresso/tools/bin/../lib/gcc/arm-none-eabi/5.4.1/../../../../arm-none-eabi/lib/armv7-m\libc.a(lib_a-lseekr.o)
 .data          0x100004e8        0x0 d:/nxp/lpcxpresso_8.2.2_650/lpcxpresso/tools/bin/../lib/gcc/arm-none-eabi/5.4.1/../../../../arm-none-eabi/lib/armv7-m\libc.a(lib_a-memmove.o)
 .data          0x100004e8        0x0 d:/nxp/lpcxpresso_8.2.2_650/lpcxpresso/tools/bin/../lib/gcc/arm-none-eabi/5.4.1/../../../../arm-none-eabi/lib/armv7-m\libc.a(lib_a-readr.o)
 .data          0x100004e8        0x0 d:/nxp/lpcxpresso_8.2.2_650/lpcxpresso/tools/bin/../lib/gcc/arm-none-eabi/5.4.1/../../../../arm-none-eabi/lib/armv7-m\libc.a(lib_a-reent.o)
 .data          0x100004e8        0x0 d:/nxp/lpcxpresso_8.2.2_650/lpcxpresso/tools/bin/../lib/gcc/arm-none-eabi/5.4.1/../../../../arm-none-eabi/lib/armv7-m\libc.a(lib_a-wbuf.o)
 .data          0x100004e8        0x0 d:/nxp/lpcxpresso_8.2.2_650/lpcxpresso/tools/bin/../lib/gcc/arm-none-eabi/5.4.1/../../../../arm-none-eabi/lib/armv7-m\libc.a(lib_a-wcrtomb.o)
 .data          0x100004e8        0x0 d:/nxp/lpcxpresso_8.2.2_650/lpcxpresso/tools/bin/../lib/gcc/arm-none-eabi/5.4.1/../../../../arm-none-eabi/lib/armv7-m\libc.a(lib_a-wctomb_r.o)
 .data.__wctomb
                0x100004e8        0x4 d:/nxp/lpcxpresso_8.2.2_650/lpcxpresso/tools/bin/../lib/gcc/arm-none-eabi/5.4.1/../../../../arm-none-eabi/lib/armv7-m\libc.a(lib_a-wctomb_r.o)
                0x100004e8                __wctomb
 .data          0x100004ec        0x0 d:/nxp/lpcxpresso_8.2.2_650/lpcxpresso/tools/bin/../lib/gcc/arm-none-eabi/5.4.1/../../../../arm-none-eabi/lib/armv7-m\libcr_newlib_semihost.a(syscalls.o)
 .data          0x100004ec        0x0 d:/nxp/lpcxpresso_8.2.2_650/lpcxpresso/tools/bin/../lib/gcc/arm-none-eabi/5.4.1/armv7-m\libgcc.a(_arm_muldivdf3.o)
 .data          0x100004ec        0x0 d:/nxp/lpcxpresso_8.2.2_650/lpcxpresso/tools/bin/../lib/gcc/arm-none-eabi/5.4.1/armv7-m\libgcc.a(_arm_cmpdf2.o)
 .data          0x100004ec        0x0 d:/nxp/lpcxpresso_8.2.2_650/lpcxpresso/tools/bin/../lib/gcc/arm-none-eabi/5.4.1/armv7-m\libgcc.a(_arm_unorddf2.o)
 .data          0x100004ec        0x0 d:/nxp/lpcxpresso_8.2.2_650/lpcxpresso/tools/bin/../lib/gcc/arm-none-eabi/5.4.1/armv7-m\libgcc.a(_arm_fixdfsi.o)
 .data          0x100004ec        0x0 d:/nxp/lpcxpresso_8.2.2_650/lpcxpresso/tools/bin/../lib/gcc/arm-none-eabi/5.4.1/armv7-m\libgcc.a(_aeabi_uldivmod.o)
 .data          0x100004ec        0x0 d:/nxp/lpcxpresso_8.2.2_650/lpcxpresso/tools/bin/../lib/gcc/arm-none-eabi/5.4.1/armv7-m\libgcc.a(_udivmoddi4.o)
 .data          0x100004ec        0x0 d:/nxp/lpcxpresso_8.2.2_650/lpcxpresso/tools/bin/../lib/gcc/arm-none-eabi/5.4.1/armv7-m\libgcc.a(_dvmd_tls.o)
 .data          0x100004ec        0x0 d:/nxp/lpcxpresso_8.2.2_650/lpcxpresso/tools/bin/../lib/gcc/arm-none-eabi/5.4.1/../../../../arm-none-eabi/lib/armv7-m\libc.a(lib_a-errno.o)
                0x100004ec                . = ALIGN (0x4)
                0x100004ec                _edata = .

.igot.plt       0x100004ec        0x0 load address 0x0000bba4
 .igot.plt      0x100004ec        0x0 ./src/pi7/programa_trajetoria/programa_trajetoria.o

.bss_RAM2       0x2007c000        0x0
                [!provide]                PROVIDE (__start_bss_RAM2, .)
 *(.bss.$RAM2*)
 *(.bss.$RamAHB32*)
                0x2007c000                . = ALIGN ((. != 0x0)?0x4:0x1)
                [!provide]                PROVIDE (__end_bss_RAM2, .)

.bss            0x100004f0     0x59b0
                0x100004f0                _bss = .
 *(.bss*)
 .bss           0x100004f0        0x0 ./src/pi7/programa_trajetoria/programa_trajetoria.o
 .bss           0x100004f0        0x0 ./src/pi7/interpretador_comando/interpretador_comando.o
 .bss.ctl_AUX   0x100004f0        0x4 ./src/pi7/interpretador_comando/interpretador_comando.o
                0x100004f0                ctl_AUX
 .bss           0x100004f4        0x0 ./src/pi7/estado_trajetoria/estado_trajetoria.o
 .bss           0x100004f4        0x0 ./src/pi7/controlador_trajetoria/controlador_trajetoria.o
 .bss           0x100004f4        0x0 ./src/pi7/comunicacao_pic/comunicacao_pic.o
 .bss           0x100004f4        0x0 ./src/pi7/comunicacao_pc/modbus.o
 .bss           0x100004f4        0x0 ./src/drivers/uart/uart.o
 .bss.UART1Count
                0x100004f4        0x4 ./src/drivers/uart/uart.o
                0x100004f4                UART1Count
 .bss.UART0Count
                0x100004f8        0x4 ./src/drivers/uart/uart.o
                0x100004f8                UART0Count
 .bss           0x100004fc        0x0 ./src/drivers/pwm/pwm.o
 .bss           0x100004fc        0x0 ./src/drivers/ledonboard/leds.o
 .bss           0x100004fc        0x0 ./src/drivers/console/alloc.o
 .bss           0x100004fc        0x0 ./src/drivers/console/basic_io.o
 .bss.cBuffer   0x100004fc       0x32 ./src/drivers/console/basic_io.o
 .bss           0x1000052e        0x0 ./src/drivers/console/consoleprint.o
 .bss           0x1000052e        0x0 ./src/cr_startup_lpc17.o
 .bss           0x1000052e        0x0 ./src/main.o
 .bss           0x1000052e        0x0 ./FreeRTOS_src/croutine.o
 *fill*         0x1000052e        0x2 
 .bss.xDelayedCoRoutineList1
                0x10000530       0x14 ./FreeRTOS_src/croutine.o
 .bss.xPassedTicks
                0x10000544        0x4 ./FreeRTOS_src/croutine.o
 .bss.xPendingReadyCoRoutineList
                0x10000548       0x14 ./FreeRTOS_src/croutine.o
 .bss.pxCurrentCoRoutine
                0x1000055c        0x4 ./FreeRTOS_src/croutine.o
                0x1000055c                pxCurrentCoRoutine
 .bss.xDelayedCoRoutineList2
                0x10000560       0x14 ./FreeRTOS_src/croutine.o
 .bss.xCoRoutineTickCount
                0x10000574        0x4 ./FreeRTOS_src/croutine.o
 .bss.xLastTickCount
                0x10000578        0x4 ./FreeRTOS_src/croutine.o
 .bss.pxDelayedCoRoutineList
                0x1000057c        0x4 ./FreeRTOS_src/croutine.o
 .bss.pxReadyCoRoutineLists
                0x10000580       0x28 ./FreeRTOS_src/croutine.o
 .bss.uxTopCoRoutineReadyPriority
                0x100005a8        0x4 ./FreeRTOS_src/croutine.o
 .bss.pxOverflowDelayedCoRoutineList
                0x100005ac        0x4 ./FreeRTOS_src/croutine.o
 .bss           0x100005b0        0x0 ./FreeRTOS_src/list.o
 .bss           0x100005b0        0x0 ./FreeRTOS_src/queue.o
 .bss           0x100005b0        0x0 ./FreeRTOS_src/tasks.o
 .bss.xPendingReadyList
                0x100005b0       0x14 ./FreeRTOS_src/tasks.o
 .bss.uxTopReadyPriority
                0x100005c4        0x4 ./FreeRTOS_src/tasks.o
 .bss.uxTasksDeleted
                0x100005c8        0x4 ./FreeRTOS_src/tasks.o
 .bss.xTickCount
                0x100005cc        0x4 ./FreeRTOS_src/tasks.o
 .bss.pxReadyTasksLists
                0x100005d0       0x64 ./FreeRTOS_src/tasks.o
 .bss.pxOverflowDelayedTaskList
                0x10000634        0x4 ./FreeRTOS_src/tasks.o
 .bss.xTasksWaitingTermination
                0x10000638       0x14 ./FreeRTOS_src/tasks.o
 .bss.xTracing  0x1000064c        0x4 ./FreeRTOS_src/tasks.o
 .bss.pxDelayedTaskList
                0x10000650        0x4 ./FreeRTOS_src/tasks.o
 .bss.uxCurrentNumberOfTasks
                0x10000654        0x4 ./FreeRTOS_src/tasks.o
 .bss.xSchedulerRunning
                0x10000658        0x4 ./FreeRTOS_src/tasks.o
 .bss.xMissedYield
                0x1000065c        0x4 ./FreeRTOS_src/tasks.o
 .bss.pcTraceBuffer
                0x10000660        0x4 ./FreeRTOS_src/tasks.o
 .bss.pxCurrentTCB
                0x10000664        0x4 ./FreeRTOS_src/tasks.o
                0x10000664                pxCurrentTCB
 .bss.pcStatusString
                0x10000668       0x32 ./FreeRTOS_src/tasks.o
 *fill*         0x1000069a        0x2 
 .bss.xSuspendedTaskList
                0x1000069c       0x14 ./FreeRTOS_src/tasks.o
 .bss.xDelayedTaskList1
                0x100006b0       0x14 ./FreeRTOS_src/tasks.o
 .bss.xDelayedTaskList2
                0x100006c4       0x14 ./FreeRTOS_src/tasks.o
 .bss.uxTaskNumber
                0x100006d8        0x4 ./FreeRTOS_src/tasks.o
 .bss.uxSchedulerSuspended
                0x100006dc        0x4 ./FreeRTOS_src/tasks.o
 .bss.uxMissedTicks
                0x100006e0        0x4 ./FreeRTOS_src/tasks.o
 .bss.pcTraceBufferStart
                0x100006e4        0x4 ./FreeRTOS_src/tasks.o
 .bss.pcTraceBufferEnd
                0x100006e8        0x4 ./FreeRTOS_src/tasks.o
 .bss.xNumOfOverflows
                0x100006ec        0x4 ./FreeRTOS_src/tasks.o
 .bss.uxTopUsedPriority
                0x100006f0        0x4 ./FreeRTOS_src/tasks.o
 .bss           0x100006f4        0x0 ./FreeRTOS_src/timers.o
 .bss           0x100006f4        0x0 ./FreeRTOS_portable/MemMang/heap_2.o
 .bss.xHeapHasBeenInitialised.4479
                0x100006f4        0x4 ./FreeRTOS_portable/MemMang/heap_2.o
 .bss.xStart    0x100006f8        0x8 ./FreeRTOS_portable/MemMang/heap_2.o
 .bss.xEnd      0x10000700        0x8 ./FreeRTOS_portable/MemMang/heap_2.o
 .bss.xHeap     0x10000708     0x4c00 ./FreeRTOS_portable/MemMang/heap_2.o
 .bss           0x10005308        0x0 ./FreeRTOS_portable/port.o
 .bss           0x10005308        0x0 ../Libraries\libCMSISv2_LPC17xx.a(system_LPC17xx.o)
 .bss           0x10005308        0x0 d:/nxp/lpcxpresso_8.2.2_650/lpcxpresso/tools/bin/../lib/gcc/arm-none-eabi/5.4.1/armv7-m\libgcc.a(_arm_addsubdf3.o)
 .bss           0x10005308        0x0 d:/nxp/lpcxpresso_8.2.2_650/lpcxpresso/tools/bin/../lib/gcc/arm-none-eabi/5.4.1/armv7-m\libgcc.a(_arm_fixsfsi.o)
 .bss           0x10005308        0x0 d:/nxp/lpcxpresso_8.2.2_650/lpcxpresso/tools/bin/../lib/gcc/arm-none-eabi/5.4.1/../../../../arm-none-eabi/lib/armv7-m\libc.a(lib_a-memcpy.o)
 .bss           0x10005308        0x0 d:/nxp/lpcxpresso_8.2.2_650/lpcxpresso/tools/bin/../lib/gcc/arm-none-eabi/5.4.1/../../../../arm-none-eabi/lib/armv7-m\libc.a(lib_a-memset.o)
 .bss           0x10005308        0x0 d:/nxp/lpcxpresso_8.2.2_650/lpcxpresso/tools/bin/../lib/gcc/arm-none-eabi/5.4.1/../../../../arm-none-eabi/lib/armv7-m\libc.a(lib_a-printf.o)
 .bss           0x10005308        0x0 d:/nxp/lpcxpresso_8.2.2_650/lpcxpresso/tools/bin/../lib/gcc/arm-none-eabi/5.4.1/../../../../arm-none-eabi/lib/armv7-m\libc.a(lib_a-sprintf.o)
 .bss           0x10005308        0x0 d:/nxp/lpcxpresso_8.2.2_650/lpcxpresso/tools/bin/../lib/gcc/arm-none-eabi/5.4.1/../../../../arm-none-eabi/lib/armv7-m\libc.a(lib_a-strcat.o)
 .bss           0x10005308        0x0 d:/nxp/lpcxpresso_8.2.2_650/lpcxpresso/tools/bin/../lib/gcc/arm-none-eabi/5.4.1/../../../../arm-none-eabi/lib/armv7-m\libc.a(lib_a-strcpy.o)
 .bss           0x10005308        0x0 d:/nxp/lpcxpresso_8.2.2_650/lpcxpresso/tools/bin/../lib/gcc/arm-none-eabi/5.4.1/../../../../arm-none-eabi/lib/armv7-m\libc.a(lib_a-strlen-stub.o)
 .bss           0x10005308        0x0 d:/nxp/lpcxpresso_8.2.2_650/lpcxpresso/tools/bin/../lib/gcc/arm-none-eabi/5.4.1/../../../../arm-none-eabi/lib/armv7-m\libc.a(lib_a-strncpy.o)
 .bss           0x10005308        0x0 d:/nxp/lpcxpresso_8.2.2_650/lpcxpresso/tools/bin/../lib/gcc/arm-none-eabi/5.4.1/../../../../arm-none-eabi/lib/armv7-m\libc.a(lib_a-svfprintf.o)
 .bss           0x10005308        0x0 d:/nxp/lpcxpresso_8.2.2_650/lpcxpresso/tools/bin/../lib/gcc/arm-none-eabi/5.4.1/../../../../arm-none-eabi/lib/armv7-m\libc.a(lib_a-vfprintf.o)
 .bss           0x10005308        0x0 d:/nxp/lpcxpresso_8.2.2_650/lpcxpresso/tools/bin/../lib/gcc/arm-none-eabi/5.4.1/../../../../arm-none-eabi/lib/armv7-m\libc.a(lib_a-wsetup.o)
 .bss           0x10005308        0x0 d:/nxp/lpcxpresso_8.2.2_650/lpcxpresso/tools/bin/../lib/gcc/arm-none-eabi/5.4.1/../../../../arm-none-eabi/lib/armv7-m\libc.a(lib_a-dtoa.o)
 .bss           0x10005308        0x0 d:/nxp/lpcxpresso_8.2.2_650/lpcxpresso/tools/bin/../lib/gcc/arm-none-eabi/5.4.1/../../../../arm-none-eabi/lib/armv7-m\libc.a(lib_a-fflush.o)
 .bss           0x10005308        0x0 d:/nxp/lpcxpresso_8.2.2_650/lpcxpresso/tools/bin/../lib/gcc/arm-none-eabi/5.4.1/../../../../arm-none-eabi/lib/armv7-m\libc.a(lib_a-findfp.o)
 .bss           0x10005308        0x0 d:/nxp/lpcxpresso_8.2.2_650/lpcxpresso/tools/bin/../lib/gcc/arm-none-eabi/5.4.1/../../../../arm-none-eabi/lib/armv7-m\libc.a(lib_a-fwalk.o)
 .bss           0x10005308        0x0 d:/nxp/lpcxpresso_8.2.2_650/lpcxpresso/tools/bin/../lib/gcc/arm-none-eabi/5.4.1/../../../../arm-none-eabi/lib/armv7-m\libc.a(lib_a-impure.o)
 .bss           0x10005308        0x0 d:/nxp/lpcxpresso_8.2.2_650/lpcxpresso/tools/bin/../lib/gcc/arm-none-eabi/5.4.1/../../../../arm-none-eabi/lib/armv7-m\libc.a(lib_a-locale.o)
 .bss._PathLocale
                0x10005308        0x4 d:/nxp/lpcxpresso_8.2.2_650/lpcxpresso/tools/bin/../lib/gcc/arm-none-eabi/5.4.1/../../../../arm-none-eabi/lib/armv7-m\libc.a(lib_a-locale.o)
                0x10005308                _PathLocale
 .bss.__nlocale_changed
                0x1000530c        0x4 d:/nxp/lpcxpresso_8.2.2_650/lpcxpresso/tools/bin/../lib/gcc/arm-none-eabi/5.4.1/../../../../arm-none-eabi/lib/armv7-m\libc.a(lib_a-locale.o)
                0x1000530c                __nlocale_changed
 .bss.__mlocale_changed
                0x10005310        0x4 d:/nxp/lpcxpresso_8.2.2_650/lpcxpresso/tools/bin/../lib/gcc/arm-none-eabi/5.4.1/../../../../arm-none-eabi/lib/armv7-m\libc.a(lib_a-locale.o)
                0x10005310                __mlocale_changed
 .bss           0x10005314        0x0 d:/nxp/lpcxpresso_8.2.2_650/lpcxpresso/tools/bin/../lib/gcc/arm-none-eabi/5.4.1/../../../../arm-none-eabi/lib/armv7-m\libc.a(lib_a-makebuf.o)
 .bss           0x10005314        0x0 d:/nxp/lpcxpresso_8.2.2_650/lpcxpresso/tools/bin/../lib/gcc/arm-none-eabi/5.4.1/../../../../arm-none-eabi/lib/armv7-m\libc.a(lib_a-memchr-stub.o)
 .bss           0x10005314        0x0 d:/nxp/lpcxpresso_8.2.2_650/lpcxpresso/tools/bin/../lib/gcc/arm-none-eabi/5.4.1/../../../../arm-none-eabi/lib/armv7-m\libc.a(lib_a-mprec.o)
 .bss           0x10005314        0x0 d:/nxp/lpcxpresso_8.2.2_650/lpcxpresso/tools/bin/../lib/gcc/arm-none-eabi/5.4.1/../../../../arm-none-eabi/lib/armv7-m\libc.a(lib_a-stdio.o)
 .bss           0x10005314        0x0 d:/nxp/lpcxpresso_8.2.2_650/lpcxpresso/tools/bin/../lib/gcc/arm-none-eabi/5.4.1/../../../../arm-none-eabi/lib/armv7-m\libc.a(lib_a-strcmp.o)
 .bss           0x10005314        0x0 d:/nxp/lpcxpresso_8.2.2_650/lpcxpresso/tools/bin/../lib/gcc/arm-none-eabi/5.4.1/../../../../arm-none-eabi/lib/armv7-m\libc.a(lib_a-svfiprintf.o)
 .bss           0x10005314        0x0 d:/nxp/lpcxpresso_8.2.2_650/lpcxpresso/tools/bin/../lib/gcc/arm-none-eabi/5.4.1/../../../../arm-none-eabi/lib/armv7-m\libc.a(lib_a-vfiprintf.o)
 .bss           0x10005314        0x0 d:/nxp/lpcxpresso_8.2.2_650/lpcxpresso/tools/bin/../lib/gcc/arm-none-eabi/5.4.1/../../../../arm-none-eabi/lib/armv7-m\libc.a(lib_a-writer.o)
 .bss           0x10005314        0x0 d:/nxp/lpcxpresso_8.2.2_650/lpcxpresso/tools/bin/../lib/gcc/arm-none-eabi/5.4.1/../../../../arm-none-eabi/lib/armv7-m\libc.a(lib_a-closer.o)
 .bss           0x10005314        0x0 d:/nxp/lpcxpresso_8.2.2_650/lpcxpresso/tools/bin/../lib/gcc/arm-none-eabi/5.4.1/../../../../arm-none-eabi/lib/armv7-m\libc.a(lib_a-fclose.o)
 .bss           0x10005314        0x0 d:/nxp/lpcxpresso_8.2.2_650/lpcxpresso/tools/bin/../lib/gcc/arm-none-eabi/5.4.1/../../../../arm-none-eabi/lib/armv7-m\libc.a(lib_a-fputwc.o)
 .bss           0x10005314        0x0 d:/nxp/lpcxpresso_8.2.2_650/lpcxpresso/tools/bin/../lib/gcc/arm-none-eabi/5.4.1/../../../../arm-none-eabi/lib/armv7-m\libc.a(lib_a-fstatr.o)
 .bss           0x10005314        0x0 d:/nxp/lpcxpresso_8.2.2_650/lpcxpresso/tools/bin/../lib/gcc/arm-none-eabi/5.4.1/../../../../arm-none-eabi/lib/armv7-m\libc.a(lib_a-fvwrite.o)
 .bss           0x10005314        0x0 d:/nxp/lpcxpresso_8.2.2_650/lpcxpresso/tools/bin/../lib/gcc/arm-none-eabi/5.4.1/../../../../arm-none-eabi/lib/armv7-m\libc.a(lib_a-isattyr.o)
 .bss           0x10005314        0x0 d:/nxp/lpcxpresso_8.2.2_650/lpcxpresso/tools/bin/../lib/gcc/arm-none-eabi/5.4.1/../../../../arm-none-eabi/lib/armv7-m\libc.a(lib_a-lseekr.o)
 .bss           0x10005314        0x0 d:/nxp/lpcxpresso_8.2.2_650/lpcxpresso/tools/bin/../lib/gcc/arm-none-eabi/5.4.1/../../../../arm-none-eabi/lib/armv7-m\libc.a(lib_a-memmove.o)
 .bss           0x10005314        0x0 d:/nxp/lpcxpresso_8.2.2_650/lpcxpresso/tools/bin/../lib/gcc/arm-none-eabi/5.4.1/../../../../arm-none-eabi/lib/armv7-m\libc.a(lib_a-readr.o)
 .bss           0x10005314        0x0 d:/nxp/lpcxpresso_8.2.2_650/lpcxpresso/tools/bin/../lib/gcc/arm-none-eabi/5.4.1/../../../../arm-none-eabi/lib/armv7-m\libc.a(lib_a-reent.o)
 .bss           0x10005314        0x0 d:/nxp/lpcxpresso_8.2.2_650/lpcxpresso/tools/bin/../lib/gcc/arm-none-eabi/5.4.1/../../../../arm-none-eabi/lib/armv7-m\libc.a(lib_a-wbuf.o)
 .bss           0x10005314        0x0 d:/nxp/lpcxpresso_8.2.2_650/lpcxpresso/tools/bin/../lib/gcc/arm-none-eabi/5.4.1/../../../../arm-none-eabi/lib/armv7-m\libc.a(lib_a-wcrtomb.o)
 .bss           0x10005314        0x0 d:/nxp/lpcxpresso_8.2.2_650/lpcxpresso/tools/bin/../lib/gcc/arm-none-eabi/5.4.1/../../../../arm-none-eabi/lib/armv7-m\libc.a(lib_a-wctomb_r.o)
 .bss           0x10005314        0x0 d:/nxp/lpcxpresso_8.2.2_650/lpcxpresso/tools/bin/../lib/gcc/arm-none-eabi/5.4.1/../../../../arm-none-eabi/lib/armv7-m\libcr_newlib_semihost.a(syscalls.o)
 .bss.monitor_stdout
                0x10005314        0x4 d:/nxp/lpcxpresso_8.2.2_650/lpcxpresso/tools/bin/../lib/gcc/arm-none-eabi/5.4.1/../../../../arm-none-eabi/lib/armv7-m\libcr_newlib_semihost.a(syscalls.o)
 .bss.monitor_stdin
                0x10005318        0x4 d:/nxp/lpcxpresso_8.2.2_650/lpcxpresso/tools/bin/../lib/gcc/arm-none-eabi/5.4.1/../../../../arm-none-eabi/lib/armv7-m\libcr_newlib_semihost.a(syscalls.o)
 .bss.initialized.5536
                0x1000531c        0x4 d:/nxp/lpcxpresso_8.2.2_650/lpcxpresso/tools/bin/../lib/gcc/arm-none-eabi/5.4.1/../../../../arm-none-eabi/lib/armv7-m\libcr_newlib_semihost.a(syscalls.o)
 .bss.monitor_stderr
                0x10005320        0x4 d:/nxp/lpcxpresso_8.2.2_650/lpcxpresso/tools/bin/../lib/gcc/arm-none-eabi/5.4.1/../../../../arm-none-eabi/lib/armv7-m\libcr_newlib_semihost.a(syscalls.o)
 .bss.openfiles
                0x10005324       0x28 d:/nxp/lpcxpresso_8.2.2_650/lpcxpresso/tools/bin/../lib/gcc/arm-none-eabi/5.4.1/../../../../arm-none-eabi/lib/armv7-m\libcr_newlib_semihost.a(syscalls.o)
 .bss           0x1000534c        0x0 d:/nxp/lpcxpresso_8.2.2_650/lpcxpresso/tools/bin/../lib/gcc/arm-none-eabi/5.4.1/armv7-m\libgcc.a(_arm_muldivdf3.o)
 .bss           0x1000534c        0x0 d:/nxp/lpcxpresso_8.2.2_650/lpcxpresso/tools/bin/../lib/gcc/arm-none-eabi/5.4.1/armv7-m\libgcc.a(_arm_cmpdf2.o)
 .bss           0x1000534c        0x0 d:/nxp/lpcxpresso_8.2.2_650/lpcxpresso/tools/bin/../lib/gcc/arm-none-eabi/5.4.1/armv7-m\libgcc.a(_arm_unorddf2.o)
 .bss           0x1000534c        0x0 d:/nxp/lpcxpresso_8.2.2_650/lpcxpresso/tools/bin/../lib/gcc/arm-none-eabi/5.4.1/armv7-m\libgcc.a(_arm_fixdfsi.o)
 .bss           0x1000534c        0x0 d:/nxp/lpcxpresso_8.2.2_650/lpcxpresso/tools/bin/../lib/gcc/arm-none-eabi/5.4.1/armv7-m\libgcc.a(_aeabi_uldivmod.o)
 .bss           0x1000534c        0x0 d:/nxp/lpcxpresso_8.2.2_650/lpcxpresso/tools/bin/../lib/gcc/arm-none-eabi/5.4.1/armv7-m\libgcc.a(_udivmoddi4.o)
 .bss           0x1000534c        0x0 d:/nxp/lpcxpresso_8.2.2_650/lpcxpresso/tools/bin/../lib/gcc/arm-none-eabi/5.4.1/armv7-m\libgcc.a(_dvmd_tls.o)
 .bss           0x1000534c        0x0 d:/nxp/lpcxpresso_8.2.2_650/lpcxpresso/tools/bin/../lib/gcc/arm-none-eabi/5.4.1/../../../../arm-none-eabi/lib/armv7-m\libc.a(lib_a-errno.o)
 *(COMMON)
 COMMON         0x1000534c      0x258 ./src/pi7/programa_trajetoria/programa_trajetoria.o
                0x1000534c                ptj_program
 COMMON         0x100055a4        0x4 ./src/pi7/estado_trajetoria/estado_trajetoria.o
                0x100055a4                stt_line
 COMMON         0x100055a8        0x4 ./src/pi7/controlador_trajetoria/controlador_trajetoria.o
                0x100055a8                trj_status
 COMMON         0x100055ac      0x7f8 ./src/pi7/comunicacao_pc/modbus.o
                0x100055ac                _state
                0x100055b0                idxTxBuffer
                0x100055b4                idxRxBuffer
                0x100055b8                rxBuffer
                0x100059a0                txBuffer
                0x10005da0                _mode
 COMMON         0x10005da4       0x90 ./src/drivers/uart/uart.o
                0x10005da4                UART1Queue
                0x10005da8                UART1Buffer
                0x10005de8                UART0Buffer
                0x10005e28                UART1Status
                0x10005e2c                UART0Queue
                0x10005e30                UART0Status
 COMMON         0x10005e34        0x8 ./src/drivers/pwm/pwm.o
                0x10005e34                match_counter0
                0x10005e38                match_counter1
 COMMON         0x10005e3c       0x10 ./src/main.o
                0x10005e3c                lastWakeTime
                0x10005e40                qControlCommands
                0x10005e44                qCommDev
                0x10005e48                qCommPIC
 COMMON         0x10005e4c       0x50 ./FreeRTOS_src/queue.o
                0x10005e4c                xQueueRegistry
 COMMON         0x10005e9c        0x4 d:/nxp/lpcxpresso_8.2.2_650/lpcxpresso/tools/bin/../lib/gcc/arm-none-eabi/5.4.1/../../../../arm-none-eabi/lib/armv7-m\libc.a(lib_a-reent.o)
                0x10005e9c                errno
                0x10005ea0                . = ALIGN (0x4)
                0x10005ea0                _ebss = .
                [!provide]                PROVIDE (end, .)

.noinit_RAM2    0x2007c000        0x0
 *(.noinit.$RAM2*)
 *(.noinit.$RamAHB32*)
                0x2007c000                . = ALIGN (0x4)

.noinit         0x10005ea0        0x0
                0x10005ea0                _noinit = .
 *(.noinit*)
                0x10005ea0                . = ALIGN (0x4)
                0x10005ea0                _end_noinit = .
                [!provide]                PROVIDE (_pvHeapStart, DEFINED (__user_heap_base)?__user_heap_base:.)
                0x10008000                PROVIDE (_vStackTop, DEFINED (__user_stack_top)?__user_stack_top:(__top_RamLoc32 - 0x0))
                [!provide]                PROVIDE (__valid_user_code_checksum, (0x0 - ((((((_vStackTop + (ResetISR + 0x1)) + (NMI_Handler + 0x1)) + (HardFault_Handler + 0x1)) + (DEFINED (MemManage_Handler)?MemManage_Handler:0x0 + 0x1)) + (DEFINED (BusFault_Handler)?BusFault_Handler:0x0 + 0x1)) + (DEFINED (UsageFault_Handler)?UsageFault_Handler:0x0 + 0x1))))
OUTPUT(pi7.axf elf32-littlearm)

.debug_info     0x00000000     0x8c50
 .debug_info    0x00000000      0x10e ./src/pi7/programa_trajetoria/programa_trajetoria.o
 .debug_info    0x0000010e      0x303 ./src/pi7/interpretador_comando/interpretador_comando.o
 .debug_info    0x00000411      0x1bb ./src/pi7/estado_trajetoria/estado_trajetoria.o
 .debug_info    0x000005cc      0x28f ./src/pi7/controlador_trajetoria/controlador_trajetoria.o
 .debug_info    0x0000085b      0x117 ./src/pi7/comunicacao_pic/comunicacao_pic.o
 .debug_info    0x00000972      0x758 ./src/pi7/comunicacao_pc/modbus.o
 .debug_info    0x000010ca      0xce8 ./src/drivers/uart/uart.o
 .debug_info    0x00001db2      0x6f2 ./src/drivers/pwm/pwm.o
 .debug_info    0x000024a4      0x53c ./src/drivers/ledonboard/leds.o
 .debug_info    0x000029e0      0xa95 ./src/drivers/console/alloc.o
 .debug_info    0x00003475      0x1be ./src/drivers/console/basic_io.o
 .debug_info    0x00003633      0x10e ./src/drivers/console/consoleprint.o
 .debug_info    0x00003741      0x1a6 ./src/cr_startup_lpc17.o
 .debug_info    0x000038e7      0x61f ./src/main.o
 .debug_info    0x00003f06      0x6aa ./FreeRTOS_src/croutine.o
 .debug_info    0x000045b0      0x289 ./FreeRTOS_src/list.o
 .debug_info    0x00004839      0xe41 ./FreeRTOS_src/queue.o
 .debug_info    0x0000567a     0x1902 ./FreeRTOS_src/tasks.o
 .debug_info    0x00006f7c       0x61 ./FreeRTOS_src/timers.o
 .debug_info    0x00006fdd      0x2fd ./FreeRTOS_portable/MemMang/heap_2.o
 .debug_info    0x000072da      0x1ec ./FreeRTOS_portable/port.o
 .debug_info    0x000074c6      0x388 ../Libraries\libCMSISv2_LPC17xx.a(system_LPC17xx.o)
 .debug_info    0x0000784e     0x1402 d:/nxp/lpcxpresso_8.2.2_650/lpcxpresso/tools/bin/../lib/gcc/arm-none-eabi/5.4.1/../../../../arm-none-eabi/lib/armv7-m\libcr_newlib_semihost.a(syscalls.o)

.debug_abbrev   0x00000000     0x23c8
 .debug_abbrev  0x00000000       0xfd ./src/pi7/programa_trajetoria/programa_trajetoria.o
 .debug_abbrev  0x000000fd      0x1d8 ./src/pi7/interpretador_comando/interpretador_comando.o
 .debug_abbrev  0x000002d5       0xa4 ./src/pi7/estado_trajetoria/estado_trajetoria.o
 .debug_abbrev  0x00000379      0x162 ./src/pi7/controlador_trajetoria/controlador_trajetoria.o
 .debug_abbrev  0x000004db       0xbd ./src/pi7/comunicacao_pic/comunicacao_pic.o
 .debug_abbrev  0x00000598      0x29e ./src/pi7/comunicacao_pc/modbus.o
 .debug_abbrev  0x00000836      0x2ab ./src/drivers/uart/uart.o
 .debug_abbrev  0x00000ae1      0x1af ./src/drivers/pwm/pwm.o
 .debug_abbrev  0x00000c90      0x101 ./src/drivers/ledonboard/leds.o
 .debug_abbrev  0x00000d91      0x245 ./src/drivers/console/alloc.o
 .debug_abbrev  0x00000fd6       0xe9 ./src/drivers/console/basic_io.o
 .debug_abbrev  0x000010bf       0xb5 ./src/drivers/console/consoleprint.o
 .debug_abbrev  0x00001174       0xe5 ./src/cr_startup_lpc17.o
 .debug_abbrev  0x00001259      0x1ac ./src/main.o
 .debug_abbrev  0x00001405      0x243 ./FreeRTOS_src/croutine.o
 .debug_abbrev  0x00001648       0xce ./FreeRTOS_src/list.o
 .debug_abbrev  0x00001716      0x264 ./FreeRTOS_src/queue.o
 .debug_abbrev  0x0000197a      0x314 ./FreeRTOS_src/tasks.o
 .debug_abbrev  0x00001c8e       0x29 ./FreeRTOS_src/timers.o
 .debug_abbrev  0x00001cb7      0x1aa ./FreeRTOS_portable/MemMang/heap_2.o
 .debug_abbrev  0x00001e61      0x136 ./FreeRTOS_portable/port.o
 .debug_abbrev  0x00001f97       0xe3 ../Libraries\libCMSISv2_LPC17xx.a(system_LPC17xx.o)
 .debug_abbrev  0x0000207a      0x34e d:/nxp/lpcxpresso_8.2.2_650/lpcxpresso/tools/bin/../lib/gcc/arm-none-eabi/5.4.1/../../../../arm-none-eabi/lib/armv7-m\libcr_newlib_semihost.a(syscalls.o)

.debug_loc      0x00000000     0x357f
 .debug_loc     0x00000000       0x35 ./src/pi7/programa_trajetoria/programa_trajetoria.o
 .debug_loc     0x00000035      0x140 ./src/pi7/interpretador_comando/interpretador_comando.o
 .debug_loc     0x00000175       0x6c ./src/pi7/controlador_trajetoria/controlador_trajetoria.o
 .debug_loc     0x000001e1      0x2b1 ./src/pi7/comunicacao_pc/modbus.o
 .debug_loc     0x00000492      0x3ce ./src/drivers/uart/uart.o
 .debug_loc     0x00000860       0xd1 ./src/drivers/pwm/pwm.o
 .debug_loc     0x00000931       0x21 ./src/drivers/ledonboard/leds.o
 .debug_loc     0x00000952      0x1a2 ./src/drivers/console/alloc.o
 .debug_loc     0x00000af4       0x84 ./src/drivers/console/basic_io.o
 .debug_loc     0x00000b78       0x55 ./src/drivers/console/consoleprint.o
 .debug_loc     0x00000bcd       0x2b ./src/cr_startup_lpc17.o
 .debug_loc     0x00000bf8       0x84 ./src/main.o
 .debug_loc     0x00000c7c      0x26b ./FreeRTOS_src/croutine.o
 .debug_loc     0x00000ee7       0x68 ./FreeRTOS_src/list.o
 .debug_loc     0x00000f4f      0x787 ./FreeRTOS_src/queue.o
 .debug_loc     0x000016d6      0xf15 ./FreeRTOS_src/tasks.o
 .debug_loc     0x000025eb      0x22d ./FreeRTOS_portable/MemMang/heap_2.o
 .debug_loc     0x00002818       0x52 ./FreeRTOS_portable/port.o
 .debug_loc     0x0000286a       0x64 ../Libraries\libCMSISv2_LPC17xx.a(system_LPC17xx.o)
 .debug_loc     0x000028ce      0xcb1 d:/nxp/lpcxpresso_8.2.2_650/lpcxpresso/tools/bin/../lib/gcc/arm-none-eabi/5.4.1/../../../../arm-none-eabi/lib/armv7-m\libcr_newlib_semihost.a(syscalls.o)

.debug_aranges  0x00000000      0x7a8
 .debug_aranges
                0x00000000       0x30 ./src/pi7/programa_trajetoria/programa_trajetoria.o
 .debug_aranges
                0x00000030       0x48 ./src/pi7/interpretador_comando/interpretador_comando.o
 .debug_aranges
                0x00000078       0x60 ./src/pi7/estado_trajetoria/estado_trajetoria.o
 .debug_aranges
                0x000000d8       0x30 ./src/pi7/controlador_trajetoria/controlador_trajetoria.o
 .debug_aranges
                0x00000108       0x28 ./src/pi7/comunicacao_pic/comunicacao_pic.o
 .debug_aranges
                0x00000130       0x90 ./src/pi7/comunicacao_pc/modbus.o
 .debug_aranges
                0x000001c0       0x48 ./src/drivers/uart/uart.o
 .debug_aranges
                0x00000208       0x40 ./src/drivers/pwm/pwm.o
 .debug_aranges
                0x00000248       0x38 ./src/drivers/ledonboard/leds.o
 .debug_aranges
                0x00000280       0x38 ./src/drivers/console/alloc.o
 .debug_aranges
                0x000002b8       0x28 ./src/drivers/console/basic_io.o
 .debug_aranges
                0x000002e0       0x20 ./src/drivers/console/consoleprint.o
 .debug_aranges
                0x00000300       0x58 ./src/cr_startup_lpc17.o
 .debug_aranges
                0x00000358       0x48 ./src/main.o
 .debug_aranges
                0x000003a0       0x38 ./FreeRTOS_src/croutine.o
 .debug_aranges
                0x000003d8       0x40 ./FreeRTOS_src/list.o
 .debug_aranges
                0x00000418       0xa0 ./FreeRTOS_src/queue.o
 .debug_aranges
                0x000004b8      0x128 ./FreeRTOS_src/tasks.o
 .debug_aranges
                0x000005e0       0x18 ./FreeRTOS_src/timers.o
 .debug_aranges
                0x000005f8       0x38 ./FreeRTOS_portable/MemMang/heap_2.o
 .debug_aranges
                0x00000630       0x68 ./FreeRTOS_portable/port.o
 .debug_aranges
                0x00000698       0x28 ../Libraries\libCMSISv2_LPC17xx.a(system_LPC17xx.o)
 .debug_aranges
                0x000006c0       0xe8 d:/nxp/lpcxpresso_8.2.2_650/lpcxpresso/tools/bin/../lib/gcc/arm-none-eabi/5.4.1/../../../../arm-none-eabi/lib/armv7-m\libcr_newlib_semihost.a(syscalls.o)

.debug_ranges   0x00000000      0x898
 .debug_ranges  0x00000000       0x20 ./src/pi7/programa_trajetoria/programa_trajetoria.o
 .debug_ranges  0x00000020       0x38 ./src/pi7/interpretador_comando/interpretador_comando.o
 .debug_ranges  0x00000058       0x50 ./src/pi7/estado_trajetoria/estado_trajetoria.o
 .debug_ranges  0x000000a8       0x20 ./src/pi7/controlador_trajetoria/controlador_trajetoria.o
 .debug_ranges  0x000000c8       0x18 ./src/pi7/comunicacao_pic/comunicacao_pic.o
 .debug_ranges  0x000000e0       0x80 ./src/pi7/comunicacao_pc/modbus.o
 .debug_ranges  0x00000160       0x78 ./src/drivers/uart/uart.o
 .debug_ranges  0x000001d8       0x30 ./src/drivers/pwm/pwm.o
 .debug_ranges  0x00000208       0x28 ./src/drivers/ledonboard/leds.o
 .debug_ranges  0x00000230       0x28 ./src/drivers/console/alloc.o
 .debug_ranges  0x00000258       0x18 ./src/drivers/console/basic_io.o
 .debug_ranges  0x00000270       0x10 ./src/drivers/console/consoleprint.o
 .debug_ranges  0x00000280       0x48 ./src/cr_startup_lpc17.o
 .debug_ranges  0x000002c8       0x50 ./src/main.o
 .debug_ranges  0x00000318       0x58 ./FreeRTOS_src/croutine.o
 .debug_ranges  0x00000370       0x30 ./FreeRTOS_src/list.o
 .debug_ranges  0x000003a0       0x90 ./FreeRTOS_src/queue.o
 .debug_ranges  0x00000430      0x1a0 ./FreeRTOS_src/tasks.o
 .debug_ranges  0x000005d0       0x28 ./FreeRTOS_portable/MemMang/heap_2.o
 .debug_ranges  0x000005f8       0x70 ./FreeRTOS_portable/port.o
 .debug_ranges  0x00000668       0x18 ../Libraries\libCMSISv2_LPC17xx.a(system_LPC17xx.o)
 .debug_ranges  0x00000680      0x218 d:/nxp/lpcxpresso_8.2.2_650/lpcxpresso/tools/bin/../lib/gcc/arm-none-eabi/5.4.1/../../../../arm-none-eabi/lib/armv7-m\libcr_newlib_semihost.a(syscalls.o)

.debug_macro    0x00000000     0x4c3d
 .debug_macro   0x00000000       0x21 ./src/pi7/programa_trajetoria/programa_trajetoria.o
 .debug_macro   0x00000021      0x89e ./src/pi7/programa_trajetoria/programa_trajetoria.o
 .debug_macro   0x000008bf      0x258 ./src/pi7/interpretador_comando/interpretador_comando.o
 .debug_macro   0x00000b17      0x174 ./src/pi7/interpretador_comando/interpretador_comando.o
 .debug_macro   0x00000c8b       0x46 ./src/pi7/interpretador_comando/interpretador_comando.o
 .debug_macro   0x00000cd1      0x137 ./src/pi7/interpretador_comando/interpretador_comando.o
 .debug_macro   0x00000e08       0xa3 ./src/pi7/interpretador_comando/interpretador_comando.o
 .debug_macro   0x00000eab       0x12 ./src/pi7/interpretador_comando/interpretador_comando.o
 .debug_macro   0x00000ebd       0x1f ./src/pi7/interpretador_comando/interpretador_comando.o
 .debug_macro   0x00000edc      0x17e ./src/pi7/interpretador_comando/interpretador_comando.o
 .debug_macro   0x0000105a       0x6a ./src/pi7/interpretador_comando/interpretador_comando.o
 .debug_macro   0x000010c4       0x22 ./src/pi7/interpretador_comando/interpretador_comando.o
 .debug_macro   0x000010e6       0x4c ./src/pi7/interpretador_comando/interpretador_comando.o
 .debug_macro   0x00001132       0x8d ./src/pi7/interpretador_comando/interpretador_comando.o
 .debug_macro   0x000011bf       0x35 ./src/pi7/interpretador_comando/interpretador_comando.o
 .debug_macro   0x000011f4       0x9c ./src/pi7/interpretador_comando/interpretador_comando.o
 .debug_macro   0x00001290       0x16 ./src/pi7/interpretador_comando/interpretador_comando.o
 .debug_macro   0x000012a6       0x4a ./src/pi7/interpretador_comando/interpretador_comando.o
 .debug_macro   0x000012f0       0x35 ./src/pi7/interpretador_comando/interpretador_comando.o
 .debug_macro   0x00001325      0x30d ./src/pi7/interpretador_comando/interpretador_comando.o
 .debug_macro   0x00001632       0x10 ./src/pi7/interpretador_comando/interpretador_comando.o
 .debug_macro   0x00001642       0x52 ./src/pi7/interpretador_comando/interpretador_comando.o
 .debug_macro   0x00001694       0x1f ./src/pi7/interpretador_comando/interpretador_comando.o
 .debug_macro   0x000016b3       0x43 ./src/pi7/interpretador_comando/interpretador_comando.o
 .debug_macro   0x000016f6       0x20 ./src/pi7/interpretador_comando/interpretador_comando.o
 .debug_macro   0x00001716      0x187 ./src/pi7/interpretador_comando/interpretador_comando.o
 .debug_macro   0x0000189d       0x10 ./src/pi7/interpretador_comando/interpretador_comando.o
 .debug_macro   0x000018ad       0x5e ./src/pi7/interpretador_comando/interpretador_comando.o
 .debug_macro   0x0000190b       0x1c ./src/pi7/interpretador_comando/interpretador_comando.o
 .debug_macro   0x00001927       0x52 ./src/pi7/interpretador_comando/interpretador_comando.o
 .debug_macro   0x00001979       0x40 ./src/pi7/interpretador_comando/interpretador_comando.o
 .debug_macro   0x000019b9       0x10 ./src/pi7/interpretador_comando/interpretador_comando.o
 .debug_macro   0x000019c9       0x40 ./src/pi7/interpretador_comando/interpretador_comando.o
 .debug_macro   0x00001a09       0xd7 ./src/pi7/interpretador_comando/interpretador_comando.o
 .debug_macro   0x00001ae0       0x16 ./src/pi7/interpretador_comando/interpretador_comando.o
 .debug_macro   0x00001af6      0x189 ./src/pi7/interpretador_comando/interpretador_comando.o
 .debug_macro   0x00001c7f       0x82 ./src/pi7/interpretador_comando/interpretador_comando.o
 .debug_macro   0x00001d01       0x34 ./src/pi7/interpretador_comando/interpretador_comando.o
 .debug_macro   0x00001d35       0x1c ./src/pi7/interpretador_comando/interpretador_comando.o
 .debug_macro   0x00001d51       0x22 ./src/pi7/interpretador_comando/interpretador_comando.o
 .debug_macro   0x00001d73       0xfd ./src/pi7/interpretador_comando/interpretador_comando.o
 .debug_macro   0x00001e70      0x1df ./src/pi7/interpretador_comando/interpretador_comando.o
 .debug_macro   0x0000204f       0xc7 ./src/pi7/interpretador_comando/interpretador_comando.o
 .debug_macro   0x00002116       0x16 ./src/pi7/interpretador_comando/interpretador_comando.o
 .debug_macro   0x0000212c      0x2d5 ./src/pi7/interpretador_comando/interpretador_comando.o
 .debug_macro   0x00002401       0x34 ./src/pi7/interpretador_comando/interpretador_comando.o
 .debug_macro   0x00002435       0x34 ./src/pi7/interpretador_comando/interpretador_comando.o
 .debug_macro   0x00002469      0x182 ./src/pi7/estado_trajetoria/estado_trajetoria.o
 .debug_macro   0x000025eb       0x97 ./src/pi7/estado_trajetoria/estado_trajetoria.o
 .debug_macro   0x00002682       0xfd ./src/pi7/estado_trajetoria/estado_trajetoria.o
 .debug_macro   0x0000277f      0x1f0 ./src/pi7/controlador_trajetoria/controlador_trajetoria.o
 .debug_macro   0x0000296f      0x243 ./src/pi7/comunicacao_pic/comunicacao_pic.o
 .debug_macro   0x00002bb2       0x70 ./src/pi7/comunicacao_pic/comunicacao_pic.o
 .debug_macro   0x00002c22      0x2b4 ./src/pi7/comunicacao_pc/modbus.o
 .debug_macro   0x00002ed6       0xfb ./src/drivers/uart/uart.o
 .debug_macro   0x00002fd1       0x1c ./src/drivers/uart/uart.o
 .debug_macro   0x00002fed       0x87 ./src/drivers/uart/uart.o
 .debug_macro   0x00003074       0x44 ./src/drivers/uart/uart.o
 .debug_macro   0x000030b8       0x1c ./src/drivers/uart/uart.o
 .debug_macro   0x000030d4      0x2d5 ./src/drivers/uart/uart.o
 .debug_macro   0x000033a9      0x137 ./src/drivers/uart/uart.o
 .debug_macro   0x000034e0       0x9f ./src/drivers/pwm/pwm.o
 .debug_macro   0x0000357f      0x13c ./src/drivers/pwm/pwm.o
 .debug_macro   0x000036bb       0x9c ./src/drivers/ledonboard/leds.o
 .debug_macro   0x00003757      0x157 ./src/drivers/console/alloc.o
 .debug_macro   0x000038ae       0x16 ./src/drivers/console/alloc.o
 .debug_macro   0x000038c4      0x10e ./src/drivers/console/alloc.o
 .debug_macro   0x000039d2       0x8d ./src/drivers/console/alloc.o
 .debug_macro   0x00003a5f       0x16 ./src/drivers/console/alloc.o
 .debug_macro   0x00003a75       0x29 ./src/drivers/console/alloc.o
 .debug_macro   0x00003a9e       0x49 ./src/drivers/console/alloc.o
 .debug_macro   0x00003ae7       0x57 ./src/drivers/console/alloc.o
 .debug_macro   0x00003b3e      0x1e8 ./src/drivers/console/basic_io.o
 .debug_macro   0x00003d26      0x19f ./src/drivers/console/consoleprint.o
 .debug_macro   0x00003ec5       0x16 ./src/drivers/console/consoleprint.o
 .debug_macro   0x00003edb       0x82 ./src/cr_startup_lpc17.o
 .debug_macro   0x00003f5d      0x2ca ./src/main.o
 .debug_macro   0x00004227       0x62 ./src/main.o
 .debug_macro   0x00004289       0x8b ./FreeRTOS_src/croutine.o
 .debug_macro   0x00004314       0x49 ./FreeRTOS_src/croutine.o
 .debug_macro   0x0000435d      0x148 ./FreeRTOS_src/list.o
 .debug_macro   0x000044a5      0x1d2 ./FreeRTOS_src/queue.o
 .debug_macro   0x00004677      0x28d ./FreeRTOS_src/tasks.o
 .debug_macro   0x00004904       0x61 ./FreeRTOS_src/tasks.o
 .debug_macro   0x00004965       0x16 ./FreeRTOS_src/tasks.o
 .debug_macro   0x0000497b       0x94 ./FreeRTOS_src/timers.o
 .debug_macro   0x00004a0f      0x176 ./FreeRTOS_portable/MemMang/heap_2.o
 .debug_macro   0x00004b85       0xb8 ./FreeRTOS_portable/port.o

.debug_line     0x00000000     0x591d
 .debug_line    0x00000000       0xbe ./src/pi7/programa_trajetoria/programa_trajetoria.o
 .debug_line    0x000000be      0x572 ./src/pi7/interpretador_comando/interpretador_comando.o
 .debug_line    0x00000630      0x369 ./src/pi7/estado_trajetoria/estado_trajetoria.o
 .debug_line    0x00000999      0x4b7 ./src/pi7/controlador_trajetoria/controlador_trajetoria.o
 .debug_line    0x00000e50      0x484 ./src/pi7/comunicacao_pic/comunicacao_pic.o
 .debug_line    0x000012d4      0x67b ./src/pi7/comunicacao_pc/modbus.o
 .debug_line    0x0000194f      0x42f ./src/drivers/uart/uart.o
 .debug_line    0x00001d7e      0x2b3 ./src/drivers/pwm/pwm.o
 .debug_line    0x00002031      0x269 ./src/drivers/ledonboard/leds.o
 .debug_line    0x0000229a      0x31e ./src/drivers/console/alloc.o
 .debug_line    0x000025b8      0x392 ./src/drivers/console/basic_io.o
 .debug_line    0x0000294a      0x2f6 ./src/drivers/console/consoleprint.o
 .debug_line    0x00002c40      0x289 ./src/cr_startup_lpc17.o
 .debug_line    0x00002ec9      0x67b ./src/main.o
 .debug_line    0x00003544      0x21f ./FreeRTOS_src/croutine.o
 .debug_line    0x00003763      0x349 ./FreeRTOS_src/list.o
 .debug_line    0x00003aac      0x55b ./FreeRTOS_src/queue.o
 .debug_line    0x00004007      0x8a0 ./FreeRTOS_src/tasks.o
 .debug_line    0x000048a7      0x150 ./FreeRTOS_src/timers.o
 .debug_line    0x000049f7      0x377 ./FreeRTOS_portable/MemMang/heap_2.o
 .debug_line    0x00004d6e      0x1f5 ./FreeRTOS_portable/port.o
 .debug_line    0x00004f63      0x415 ../Libraries\libCMSISv2_LPC17xx.a(system_LPC17xx.o)
 .debug_line    0x00005378      0x5a5 d:/nxp/lpcxpresso_8.2.2_650/lpcxpresso/tools/bin/../lib/gcc/arm-none-eabi/5.4.1/../../../../arm-none-eabi/lib/armv7-m\libcr_newlib_semihost.a(syscalls.o)

.debug_str      0x00000000     0xfcf0
 .debug_str     0x00000000     0x2597 ./src/pi7/programa_trajetoria/programa_trajetoria.o
                               0x25a7 (size before relaxing)
 .debug_str     0x00002597     0x7f5f ./src/pi7/interpretador_comando/interpretador_comando.o
                               0xa65f (size before relaxing)
 .debug_str     0x0000a4f6       0x83 ./src/pi7/estado_trajetoria/estado_trajetoria.o
                               0x65cd (size before relaxing)
 .debug_str     0x0000a579       0xcb ./src/pi7/controlador_trajetoria/controlador_trajetoria.o
                               0x814d (size before relaxing)
 .debug_str     0x0000a644      0x12d ./src/pi7/comunicacao_pic/comunicacao_pic.o
                               0xa571 (size before relaxing)
 .debug_str     0x0000a771      0x2d6 ./src/pi7/comunicacao_pc/modbus.o
                               0xa8aa (size before relaxing)
 .debug_str     0x0000aa47      0x64b ./src/drivers/uart/uart.o
                               0x6e76 (size before relaxing)
 .debug_str     0x0000b092      0x42a ./src/drivers/pwm/pwm.o
                               0x5146 (size before relaxing)
 .debug_str     0x0000b4bc      0x187 ./src/drivers/ledonboard/leds.o
                               0x4c3c (size before relaxing)
 .debug_str     0x0000b643      0xc52 ./src/drivers/console/alloc.o
                               0x725a (size before relaxing)
 .debug_str     0x0000c295       0xa3 ./src/drivers/console/basic_io.o
                               0x8024 (size before relaxing)
 .debug_str     0x0000c338       0x63 ./src/drivers/console/consoleprint.o
                               0x6585 (size before relaxing)
 .debug_str     0x0000c39b      0x11c ./src/cr_startup_lpc17.o
                               0x351b (size before relaxing)
 .debug_str     0x0000c4b7      0x763 ./src/main.o
                               0xb608 (size before relaxing)
 .debug_str     0x0000cc1a      0xa8c ./FreeRTOS_src/croutine.o
                               0x4d98 (size before relaxing)
 .debug_str     0x0000d6a6       0x5f ./FreeRTOS_src/list.o
                               0x6beb (size before relaxing)
 .debug_str     0x0000d705      0x6eb ./FreeRTOS_src/queue.o
                               0x7c66 (size before relaxing)
 .debug_str     0x0000ddf0     0x1365 ./FreeRTOS_src/tasks.o
                               0x975b (size before relaxing)
 .debug_str     0x0000f155       0x19 ./FreeRTOS_src/timers.o
                               0x4fa9 (size before relaxing)
 .debug_str     0x0000f16e      0x405 ./FreeRTOS_portable/MemMang/heap_2.o
                               0x72ac (size before relaxing)
 .debug_str     0x0000f573      0x2f5 ./FreeRTOS_portable/port.o
                               0x4680 (size before relaxing)
 .debug_str     0x0000f868       0xb6 ../Libraries\libCMSISv2_LPC17xx.a(system_LPC17xx.o)
                                0x2af (size before relaxing)
 .debug_str     0x0000f91e      0x3d2 d:/nxp/lpcxpresso_8.2.2_650/lpcxpresso/tools/bin/../lib/gcc/arm-none-eabi/5.4.1/../../../../arm-none-eabi/lib/armv7-m\libcr_newlib_semihost.a(syscalls.o)
                                0x4f7 (size before relaxing)

.comment        0x00000000      0x14c
 .comment       0x00000000       0x6e ./src/pi7/programa_trajetoria/programa_trajetoria.o
                                 0x6f (size before relaxing)
 .comment       0x0000006e       0x6f ./src/pi7/interpretador_comando/interpretador_comando.o
 .comment       0x0000006e       0x6f ./src/pi7/estado_trajetoria/estado_trajetoria.o
 .comment       0x0000006e       0x6f ./src/pi7/controlador_trajetoria/controlador_trajetoria.o
 .comment       0x0000006e       0x6f ./src/pi7/comunicacao_pic/comunicacao_pic.o
 .comment       0x0000006e       0x6f ./src/pi7/comunicacao_pc/modbus.o
 .comment       0x0000006e       0x6f ./src/drivers/uart/uart.o
 .comment       0x0000006e       0x6f ./src/drivers/pwm/pwm.o
 .comment       0x0000006e       0x6f ./src/drivers/ledonboard/leds.o
 .comment       0x0000006e       0x6f ./src/drivers/console/alloc.o
 .comment       0x0000006e       0x6f ./src/drivers/console/basic_io.o
 .comment       0x0000006e       0x6f ./src/drivers/console/consoleprint.o
 .comment       0x0000006e       0x6f ./src/cr_startup_lpc17.o
 .comment       0x0000006e       0x6f ./src/main.o
 .comment       0x0000006e       0x6f ./FreeRTOS_src/croutine.o
 .comment       0x0000006e       0x6f ./FreeRTOS_src/list.o
 .comment       0x0000006e       0x6f ./FreeRTOS_src/queue.o
 .comment       0x0000006e       0x6f ./FreeRTOS_src/tasks.o
 .comment       0x0000006e       0x6f ./FreeRTOS_src/timers.o
 .comment       0x0000006e       0x6f ./FreeRTOS_portable/MemMang/heap_2.o
 .comment       0x0000006e       0x6f ./FreeRTOS_portable/port.o
 .comment       0x0000006e       0x70 ../Libraries\libCMSISv2_LPC17xx.a(system_LPC17xx.o)
                                 0x71 (size before relaxing)
 .comment       0x000000de       0x6e d:/nxp/lpcxpresso_8.2.2_650/lpcxpresso/tools/bin/../lib/gcc/arm-none-eabi/5.4.1/../../../../arm-none-eabi/lib/armv7-m\libcr_newlib_semihost.a(syscalls.o)
                                 0x6f (size before relaxing)

.ARM.attributes
                0x00000000       0x31
 .ARM.attributes
                0x00000000       0x33 ./src/pi7/programa_trajetoria/programa_trajetoria.o
 .ARM.attributes
                0x00000033       0x33 ./src/pi7/interpretador_comando/interpretador_comando.o
 .ARM.attributes
                0x00000066       0x33 ./src/pi7/estado_trajetoria/estado_trajetoria.o
 .ARM.attributes
                0x00000099       0x33 ./src/pi7/controlador_trajetoria/controlador_trajetoria.o
 .ARM.attributes
                0x000000cc       0x33 ./src/pi7/comunicacao_pic/comunicacao_pic.o
 .ARM.attributes
                0x000000ff       0x33 ./src/pi7/comunicacao_pc/modbus.o
 .ARM.attributes
                0x00000132       0x33 ./src/drivers/uart/uart.o
 .ARM.attributes
                0x00000165       0x33 ./src/drivers/pwm/pwm.o
 .ARM.attributes
                0x00000198       0x33 ./src/drivers/ledonboard/leds.o
 .ARM.attributes
                0x000001cb       0x33 ./src/drivers/console/alloc.o
 .ARM.attributes
                0x000001fe       0x33 ./src/drivers/console/basic_io.o
 .ARM.attributes
                0x00000231       0x33 ./src/drivers/console/consoleprint.o
 .ARM.attributes
                0x00000264       0x33 ./src/cr_startup_lpc17.o
 .ARM.attributes
                0x00000297       0x33 ./src/main.o
 .ARM.attributes
                0x000002ca       0x33 ./FreeRTOS_src/croutine.o
 .ARM.attributes
                0x000002fd       0x33 ./FreeRTOS_src/list.o
 .ARM.attributes
                0x00000330       0x33 ./FreeRTOS_src/queue.o
 .ARM.attributes
                0x00000363       0x33 ./FreeRTOS_src/tasks.o
 .ARM.attributes
                0x00000396       0x33 ./FreeRTOS_src/timers.o
 .ARM.attributes
                0x000003c9       0x33 ./FreeRTOS_portable/MemMang/heap_2.o
 .ARM.attributes
                0x000003fc       0x33 ./FreeRTOS_portable/port.o
 .ARM.attributes
                0x0000042f       0x33 ../Libraries\libCMSISv2_LPC17xx.a(system_LPC17xx.o)
 .ARM.attributes
                0x00000462       0x1d d:/nxp/lpcxpresso_8.2.2_650/lpcxpresso/tools/bin/../lib/gcc/arm-none-eabi/5.4.1/armv7-m\libgcc.a(_arm_addsubdf3.o)
 .ARM.attributes
                0x0000047f       0x1d d:/nxp/lpcxpresso_8.2.2_650/lpcxpresso/tools/bin/../lib/gcc/arm-none-eabi/5.4.1/armv7-m\libgcc.a(_arm_fixsfsi.o)
 .ARM.attributes
                0x0000049c       0x1b d:/nxp/lpcxpresso_8.2.2_650/lpcxpresso/tools/bin/../lib/gcc/arm-none-eabi/5.4.1/../../../../arm-none-eabi/lib/armv7-m\libc.a(lib_a-memcpy.o)
 .ARM.attributes
                0x000004b7       0x2d d:/nxp/lpcxpresso_8.2.2_650/lpcxpresso/tools/bin/../lib/gcc/arm-none-eabi/5.4.1/../../../../arm-none-eabi/lib/armv7-m\libc.a(lib_a-memset.o)
 .ARM.attributes
                0x000004e4       0x2d d:/nxp/lpcxpresso_8.2.2_650/lpcxpresso/tools/bin/../lib/gcc/arm-none-eabi/5.4.1/../../../../arm-none-eabi/lib/armv7-m\libc.a(lib_a-printf.o)
 .ARM.attributes
                0x00000511       0x2d d:/nxp/lpcxpresso_8.2.2_650/lpcxpresso/tools/bin/../lib/gcc/arm-none-eabi/5.4.1/../../../../arm-none-eabi/lib/armv7-m\libc.a(lib_a-sprintf.o)
 .ARM.attributes
                0x0000053e       0x2d d:/nxp/lpcxpresso_8.2.2_650/lpcxpresso/tools/bin/../lib/gcc/arm-none-eabi/5.4.1/../../../../arm-none-eabi/lib/armv7-m\libc.a(lib_a-strcat.o)
 .ARM.attributes
                0x0000056b       0x2d d:/nxp/lpcxpresso_8.2.2_650/lpcxpresso/tools/bin/../lib/gcc/arm-none-eabi/5.4.1/../../../../arm-none-eabi/lib/armv7-m\libc.a(lib_a-strcpy.o)
 .ARM.attributes
                0x00000598       0x2d d:/nxp/lpcxpresso_8.2.2_650/lpcxpresso/tools/bin/../lib/gcc/arm-none-eabi/5.4.1/../../../../arm-none-eabi/lib/armv7-m\libc.a(lib_a-strlen-stub.o)
 .ARM.attributes
                0x000005c5       0x2d d:/nxp/lpcxpresso_8.2.2_650/lpcxpresso/tools/bin/../lib/gcc/arm-none-eabi/5.4.1/../../../../arm-none-eabi/lib/armv7-m\libc.a(lib_a-strncpy.o)
 .ARM.attributes
                0x000005f2       0x2d d:/nxp/lpcxpresso_8.2.2_650/lpcxpresso/tools/bin/../lib/gcc/arm-none-eabi/5.4.1/../../../../arm-none-eabi/lib/armv7-m\libc.a(lib_a-svfprintf.o)
 .ARM.attributes
                0x0000061f       0x2d d:/nxp/lpcxpresso_8.2.2_650/lpcxpresso/tools/bin/../lib/gcc/arm-none-eabi/5.4.1/../../../../arm-none-eabi/lib/armv7-m\libc.a(lib_a-vfprintf.o)
 .ARM.attributes
                0x0000064c       0x2d d:/nxp/lpcxpresso_8.2.2_650/lpcxpresso/tools/bin/../lib/gcc/arm-none-eabi/5.4.1/../../../../arm-none-eabi/lib/armv7-m\libc.a(lib_a-wsetup.o)
 .ARM.attributes
                0x00000679       0x2d d:/nxp/lpcxpresso_8.2.2_650/lpcxpresso/tools/bin/../lib/gcc/arm-none-eabi/5.4.1/../../../../arm-none-eabi/lib/armv7-m\libc.a(lib_a-dtoa.o)
 .ARM.attributes
                0x000006a6       0x2d d:/nxp/lpcxpresso_8.2.2_650/lpcxpresso/tools/bin/../lib/gcc/arm-none-eabi/5.4.1/../../../../arm-none-eabi/lib/armv7-m\libc.a(lib_a-fflush.o)
 .ARM.attributes
                0x000006d3       0x2d d:/nxp/lpcxpresso_8.2.2_650/lpcxpresso/tools/bin/../lib/gcc/arm-none-eabi/5.4.1/../../../../arm-none-eabi/lib/armv7-m\libc.a(lib_a-findfp.o)
 .ARM.attributes
                0x00000700       0x2d d:/nxp/lpcxpresso_8.2.2_650/lpcxpresso/tools/bin/../lib/gcc/arm-none-eabi/5.4.1/../../../../arm-none-eabi/lib/armv7-m\libc.a(lib_a-fwalk.o)
 .ARM.attributes
                0x0000072d       0x2d d:/nxp/lpcxpresso_8.2.2_650/lpcxpresso/tools/bin/../lib/gcc/arm-none-eabi/5.4.1/../../../../arm-none-eabi/lib/armv7-m\libc.a(lib_a-impure.o)
 .ARM.attributes
                0x0000075a       0x2d d:/nxp/lpcxpresso_8.2.2_650/lpcxpresso/tools/bin/../lib/gcc/arm-none-eabi/5.4.1/../../../../arm-none-eabi/lib/armv7-m\libc.a(lib_a-locale.o)
 .ARM.attributes
                0x00000787       0x2d d:/nxp/lpcxpresso_8.2.2_650/lpcxpresso/tools/bin/../lib/gcc/arm-none-eabi/5.4.1/../../../../arm-none-eabi/lib/armv7-m\libc.a(lib_a-makebuf.o)
 .ARM.attributes
                0x000007b4       0x2d d:/nxp/lpcxpresso_8.2.2_650/lpcxpresso/tools/bin/../lib/gcc/arm-none-eabi/5.4.1/../../../../arm-none-eabi/lib/armv7-m\libc.a(lib_a-memchr-stub.o)
 .ARM.attributes
                0x000007e1       0x2d d:/nxp/lpcxpresso_8.2.2_650/lpcxpresso/tools/bin/../lib/gcc/arm-none-eabi/5.4.1/../../../../arm-none-eabi/lib/armv7-m\libc.a(lib_a-mprec.o)
 .ARM.attributes
                0x0000080e       0x2d d:/nxp/lpcxpresso_8.2.2_650/lpcxpresso/tools/bin/../lib/gcc/arm-none-eabi/5.4.1/../../../../arm-none-eabi/lib/armv7-m\libc.a(lib_a-stdio.o)
 .ARM.attributes
                0x0000083b       0x1b d:/nxp/lpcxpresso_8.2.2_650/lpcxpresso/tools/bin/../lib/gcc/arm-none-eabi/5.4.1/../../../../arm-none-eabi/lib/armv7-m\libc.a(lib_a-strcmp.o)
 .ARM.attributes
                0x00000856       0x2d d:/nxp/lpcxpresso_8.2.2_650/lpcxpresso/tools/bin/../lib/gcc/arm-none-eabi/5.4.1/../../../../arm-none-eabi/lib/armv7-m\libc.a(lib_a-svfiprintf.o)
 .ARM.attributes
                0x00000883       0x2d d:/nxp/lpcxpresso_8.2.2_650/lpcxpresso/tools/bin/../lib/gcc/arm-none-eabi/5.4.1/../../../../arm-none-eabi/lib/armv7-m\libc.a(lib_a-vfiprintf.o)
 .ARM.attributes
                0x000008b0       0x2d d:/nxp/lpcxpresso_8.2.2_650/lpcxpresso/tools/bin/../lib/gcc/arm-none-eabi/5.4.1/../../../../arm-none-eabi/lib/armv7-m\libc.a(lib_a-writer.o)
 .ARM.attributes
                0x000008dd       0x2d d:/nxp/lpcxpresso_8.2.2_650/lpcxpresso/tools/bin/../lib/gcc/arm-none-eabi/5.4.1/../../../../arm-none-eabi/lib/armv7-m\libc.a(lib_a-closer.o)
 .ARM.attributes
                0x0000090a       0x2d d:/nxp/lpcxpresso_8.2.2_650/lpcxpresso/tools/bin/../lib/gcc/arm-none-eabi/5.4.1/../../../../arm-none-eabi/lib/armv7-m\libc.a(lib_a-fclose.o)
 .ARM.attributes
                0x00000937       0x2d d:/nxp/lpcxpresso_8.2.2_650/lpcxpresso/tools/bin/../lib/gcc/arm-none-eabi/5.4.1/../../../../arm-none-eabi/lib/armv7-m\libc.a(lib_a-fputwc.o)
 .ARM.attributes
                0x00000964       0x2d d:/nxp/lpcxpresso_8.2.2_650/lpcxpresso/tools/bin/../lib/gcc/arm-none-eabi/5.4.1/../../../../arm-none-eabi/lib/armv7-m\libc.a(lib_a-fstatr.o)
 .ARM.attributes
                0x00000991       0x2d d:/nxp/lpcxpresso_8.2.2_650/lpcxpresso/tools/bin/../lib/gcc/arm-none-eabi/5.4.1/../../../../arm-none-eabi/lib/armv7-m\libc.a(lib_a-fvwrite.o)
 .ARM.attributes
                0x000009be       0x2d d:/nxp/lpcxpresso_8.2.2_650/lpcxpresso/tools/bin/../lib/gcc/arm-none-eabi/5.4.1/../../../../arm-none-eabi/lib/armv7-m\libc.a(lib_a-isattyr.o)
 .ARM.attributes
                0x000009eb       0x2d d:/nxp/lpcxpresso_8.2.2_650/lpcxpresso/tools/bin/../lib/gcc/arm-none-eabi/5.4.1/../../../../arm-none-eabi/lib/armv7-m\libc.a(lib_a-lseekr.o)
 .ARM.attributes
                0x00000a18       0x2d d:/nxp/lpcxpresso_8.2.2_650/lpcxpresso/tools/bin/../lib/gcc/arm-none-eabi/5.4.1/../../../../arm-none-eabi/lib/armv7-m\libc.a(lib_a-memmove.o)
 .ARM.attributes
                0x00000a45       0x2d d:/nxp/lpcxpresso_8.2.2_650/lpcxpresso/tools/bin/../lib/gcc/arm-none-eabi/5.4.1/../../../../arm-none-eabi/lib/armv7-m\libc.a(lib_a-readr.o)
 .ARM.attributes
                0x00000a72       0x2d d:/nxp/lpcxpresso_8.2.2_650/lpcxpresso/tools/bin/../lib/gcc/arm-none-eabi/5.4.1/../../../../arm-none-eabi/lib/armv7-m\libc.a(lib_a-reent.o)
 .ARM.attributes
                0x00000a9f       0x2d d:/nxp/lpcxpresso_8.2.2_650/lpcxpresso/tools/bin/../lib/gcc/arm-none-eabi/5.4.1/../../../../arm-none-eabi/lib/armv7-m\libc.a(lib_a-wbuf.o)
 .ARM.attributes
                0x00000acc       0x2d d:/nxp/lpcxpresso_8.2.2_650/lpcxpresso/tools/bin/../lib/gcc/arm-none-eabi/5.4.1/../../../../arm-none-eabi/lib/armv7-m\libc.a(lib_a-wcrtomb.o)
 .ARM.attributes
                0x00000af9       0x2d d:/nxp/lpcxpresso_8.2.2_650/lpcxpresso/tools/bin/../lib/gcc/arm-none-eabi/5.4.1/../../../../arm-none-eabi/lib/armv7-m\libc.a(lib_a-wctomb_r.o)
 .ARM.attributes
                0x00000b26       0x33 d:/nxp/lpcxpresso_8.2.2_650/lpcxpresso/tools/bin/../lib/gcc/arm-none-eabi/5.4.1/../../../../arm-none-eabi/lib/armv7-m\libcr_newlib_semihost.a(syscalls.o)
 .ARM.attributes
                0x00000b59       0x1d d:/nxp/lpcxpresso_8.2.2_650/lpcxpresso/tools/bin/../lib/gcc/arm-none-eabi/5.4.1/armv7-m\libgcc.a(_arm_muldivdf3.o)
 .ARM.attributes
                0x00000b76       0x1d d:/nxp/lpcxpresso_8.2.2_650/lpcxpresso/tools/bin/../lib/gcc/arm-none-eabi/5.4.1/armv7-m\libgcc.a(_arm_cmpdf2.o)
 .ARM.attributes
                0x00000b93       0x1d d:/nxp/lpcxpresso_8.2.2_650/lpcxpresso/tools/bin/../lib/gcc/arm-none-eabi/5.4.1/armv7-m\libgcc.a(_arm_unorddf2.o)
 .ARM.attributes
                0x00000bb0       0x1d d:/nxp/lpcxpresso_8.2.2_650/lpcxpresso/tools/bin/../lib/gcc/arm-none-eabi/5.4.1/armv7-m\libgcc.a(_arm_fixdfsi.o)
 .ARM.attributes
                0x00000bcd       0x1d d:/nxp/lpcxpresso_8.2.2_650/lpcxpresso/tools/bin/../lib/gcc/arm-none-eabi/5.4.1/armv7-m\libgcc.a(_aeabi_uldivmod.o)
 .ARM.attributes
                0x00000bea       0x2d d:/nxp/lpcxpresso_8.2.2_650/lpcxpresso/tools/bin/../lib/gcc/arm-none-eabi/5.4.1/armv7-m\libgcc.a(_udivmoddi4.o)
 .ARM.attributes
                0x00000c17       0x1d d:/nxp/lpcxpresso_8.2.2_650/lpcxpresso/tools/bin/../lib/gcc/arm-none-eabi/5.4.1/armv7-m\libgcc.a(_dvmd_tls.o)
 .ARM.attributes
                0x00000c34       0x2d d:/nxp/lpcxpresso_8.2.2_650/lpcxpresso/tools/bin/../lib/gcc/arm-none-eabi/5.4.1/../../../../arm-none-eabi/lib/armv7-m\libc.a(lib_a-errno.o)

.debug_frame    0x00000000     0x21e4
 .debug_frame   0x00000000       0x48 ./src/pi7/programa_trajetoria/programa_trajetoria.o
 .debug_frame   0x00000048       0x8c ./src/pi7/interpretador_comando/interpretador_comando.o
 .debug_frame   0x000000d4       0xa0 ./src/pi7/estado_trajetoria/estado_trajetoria.o
 .debug_frame   0x00000174       0x60 ./src/pi7/controlador_trajetoria/controlador_trajetoria.o
 .debug_frame   0x000001d4       0x40 ./src/pi7/comunicacao_pic/comunicacao_pic.o
 .debug_frame   0x00000214      0x18c ./src/pi7/comunicacao_pc/modbus.o
 .debug_frame   0x000003a0       0xb0 ./src/drivers/uart/uart.o
 .debug_frame   0x00000450       0x78 ./src/drivers/pwm/pwm.o
 .debug_frame   0x000004c8       0x50 ./src/drivers/ledonboard/leds.o
 .debug_frame   0x00000518       0x5c ./src/drivers/console/alloc.o
 .debug_frame   0x00000574       0x50 ./src/drivers/console/basic_io.o
 .debug_frame   0x000005c4       0x2c ./src/drivers/console/consoleprint.o
 .debug_frame   0x000005f0       0x98 ./src/cr_startup_lpc17.o
 .debug_frame   0x00000688       0xa4 ./src/main.o
 .debug_frame   0x0000072c       0xb8 ./FreeRTOS_src/croutine.o
 .debug_frame   0x000007e4       0x68 ./FreeRTOS_src/list.o
 .debug_frame   0x0000084c      0x1f0 ./FreeRTOS_src/queue.o
 .debug_frame   0x00000a3c      0x414 ./FreeRTOS_src/tasks.o
 .debug_frame   0x00000e50       0x74 ./FreeRTOS_portable/MemMang/heap_2.o
 .debug_frame   0x00000ec4       0xc0 ./FreeRTOS_portable/port.o
 .debug_frame   0x00000f84       0x44 ../Libraries\libCMSISv2_LPC17xx.a(system_LPC17xx.o)
 .debug_frame   0x00000fc8       0x34 d:/nxp/lpcxpresso_8.2.2_650/lpcxpresso/tools/bin/../lib/gcc/arm-none-eabi/5.4.1/../../../../arm-none-eabi/lib/armv7-m\libc.a(lib_a-memset.o)
 .debug_frame   0x00000ffc       0x78 d:/nxp/lpcxpresso_8.2.2_650/lpcxpresso/tools/bin/../lib/gcc/arm-none-eabi/5.4.1/../../../../arm-none-eabi/lib/armv7-m\libc.a(lib_a-printf.o)
 .debug_frame   0x00001074       0x84 d:/nxp/lpcxpresso_8.2.2_650/lpcxpresso/tools/bin/../lib/gcc/arm-none-eabi/5.4.1/../../../../arm-none-eabi/lib/armv7-m\libc.a(lib_a-sprintf.o)
 .debug_frame   0x000010f8       0x28 d:/nxp/lpcxpresso_8.2.2_650/lpcxpresso/tools/bin/../lib/gcc/arm-none-eabi/5.4.1/../../../../arm-none-eabi/lib/armv7-m\libc.a(lib_a-strcat.o)
 .debug_frame   0x00001120       0x20 d:/nxp/lpcxpresso_8.2.2_650/lpcxpresso/tools/bin/../lib/gcc/arm-none-eabi/5.4.1/../../../../arm-none-eabi/lib/armv7-m\libc.a(lib_a-strcpy.o)
 .debug_frame   0x00001140       0x20 d:/nxp/lpcxpresso_8.2.2_650/lpcxpresso/tools/bin/../lib/gcc/arm-none-eabi/5.4.1/../../../../arm-none-eabi/lib/armv7-m\libc.a(lib_a-strlen-stub.o)
 .debug_frame   0x00001160       0x34 d:/nxp/lpcxpresso_8.2.2_650/lpcxpresso/tools/bin/../lib/gcc/arm-none-eabi/5.4.1/../../../../arm-none-eabi/lib/armv7-m\libc.a(lib_a-strncpy.o)
 .debug_frame   0x00001194       0x44 d:/nxp/lpcxpresso_8.2.2_650/lpcxpresso/tools/bin/../lib/gcc/arm-none-eabi/5.4.1/../../../../arm-none-eabi/lib/armv7-m\libc.a(lib_a-svfprintf.o)
 .debug_frame   0x000011d8       0x88 d:/nxp/lpcxpresso_8.2.2_650/lpcxpresso/tools/bin/../lib/gcc/arm-none-eabi/5.4.1/../../../../arm-none-eabi/lib/armv7-m\libc.a(lib_a-vfprintf.o)
 .debug_frame   0x00001260       0x2c d:/nxp/lpcxpresso_8.2.2_650/lpcxpresso/tools/bin/../lib/gcc/arm-none-eabi/5.4.1/../../../../arm-none-eabi/lib/armv7-m\libc.a(lib_a-wsetup.o)
 .debug_frame   0x0000128c       0x84 d:/nxp/lpcxpresso_8.2.2_650/lpcxpresso/tools/bin/../lib/gcc/arm-none-eabi/5.4.1/../../../../arm-none-eabi/lib/armv7-m\libc.a(lib_a-dtoa.o)
 .debug_frame   0x00001310       0x6c d:/nxp/lpcxpresso_8.2.2_650/lpcxpresso/tools/bin/../lib/gcc/arm-none-eabi/5.4.1/../../../../arm-none-eabi/lib/armv7-m\libc.a(lib_a-fflush.o)
 .debug_frame   0x0000137c      0x124 d:/nxp/lpcxpresso_8.2.2_650/lpcxpresso/tools/bin/../lib/gcc/arm-none-eabi/5.4.1/../../../../arm-none-eabi/lib/armv7-m\libc.a(lib_a-findfp.o)
 .debug_frame   0x000014a0       0x54 d:/nxp/lpcxpresso_8.2.2_650/lpcxpresso/tools/bin/../lib/gcc/arm-none-eabi/5.4.1/../../../../arm-none-eabi/lib/armv7-m\libc.a(lib_a-fwalk.o)
 .debug_frame   0x000014f4       0x9c d:/nxp/lpcxpresso_8.2.2_650/lpcxpresso/tools/bin/../lib/gcc/arm-none-eabi/5.4.1/../../../../arm-none-eabi/lib/armv7-m\libc.a(lib_a-locale.o)
 .debug_frame   0x00001590       0x68 d:/nxp/lpcxpresso_8.2.2_650/lpcxpresso/tools/bin/../lib/gcc/arm-none-eabi/5.4.1/../../../../arm-none-eabi/lib/armv7-m\libc.a(lib_a-makebuf.o)
 .debug_frame   0x000015f8       0x34 d:/nxp/lpcxpresso_8.2.2_650/lpcxpresso/tools/bin/../lib/gcc/arm-none-eabi/5.4.1/../../../../arm-none-eabi/lib/armv7-m\libc.a(lib_a-memchr-stub.o)
 .debug_frame   0x0000162c      0x264 d:/nxp/lpcxpresso_8.2.2_650/lpcxpresso/tools/bin/../lib/gcc/arm-none-eabi/5.4.1/../../../../arm-none-eabi/lib/armv7-m\libc.a(lib_a-mprec.o)
 .debug_frame   0x00001890       0x88 d:/nxp/lpcxpresso_8.2.2_650/lpcxpresso/tools/bin/../lib/gcc/arm-none-eabi/5.4.1/../../../../arm-none-eabi/lib/armv7-m\libc.a(lib_a-stdio.o)
 .debug_frame   0x00001918       0x34 d:/nxp/lpcxpresso_8.2.2_650/lpcxpresso/tools/bin/../lib/gcc/arm-none-eabi/5.4.1/../../../../arm-none-eabi/lib/armv7-m\libc.a(lib_a-strcmp.o)
 .debug_frame   0x0000194c       0x78 d:/nxp/lpcxpresso_8.2.2_650/lpcxpresso/tools/bin/../lib/gcc/arm-none-eabi/5.4.1/../../../../arm-none-eabi/lib/armv7-m\libc.a(lib_a-svfiprintf.o)
 .debug_frame   0x000019c4       0xc8 d:/nxp/lpcxpresso_8.2.2_650/lpcxpresso/tools/bin/../lib/gcc/arm-none-eabi/5.4.1/../../../../arm-none-eabi/lib/armv7-m\libc.a(lib_a-vfiprintf.o)
 .debug_frame   0x00001a8c       0x2c d:/nxp/lpcxpresso_8.2.2_650/lpcxpresso/tools/bin/../lib/gcc/arm-none-eabi/5.4.1/../../../../arm-none-eabi/lib/armv7-m\libc.a(lib_a-writer.o)
 .debug_frame   0x00001ab8       0x2c d:/nxp/lpcxpresso_8.2.2_650/lpcxpresso/tools/bin/../lib/gcc/arm-none-eabi/5.4.1/../../../../arm-none-eabi/lib/armv7-m\libc.a(lib_a-closer.o)
 .debug_frame   0x00001ae4       0x44 d:/nxp/lpcxpresso_8.2.2_650/lpcxpresso/tools/bin/../lib/gcc/arm-none-eabi/5.4.1/../../../../arm-none-eabi/lib/armv7-m\libc.a(lib_a-fclose.o)
 .debug_frame   0x00001b28       0x88 d:/nxp/lpcxpresso_8.2.2_650/lpcxpresso/tools/bin/../lib/gcc/arm-none-eabi/5.4.1/../../../../arm-none-eabi/lib/armv7-m\libc.a(lib_a-fputwc.o)
 .debug_frame   0x00001bb0       0x2c d:/nxp/lpcxpresso_8.2.2_650/lpcxpresso/tools/bin/../lib/gcc/arm-none-eabi/5.4.1/../../../../arm-none-eabi/lib/armv7-m\libc.a(lib_a-fstatr.o)
 .debug_frame   0x00001bdc       0x68 d:/nxp/lpcxpresso_8.2.2_650/lpcxpresso/tools/bin/../lib/gcc/arm-none-eabi/5.4.1/../../../../arm-none-eabi/lib/armv7-m\libc.a(lib_a-fvwrite.o)
 .debug_frame   0x00001c44       0x2c d:/nxp/lpcxpresso_8.2.2_650/lpcxpresso/tools/bin/../lib/gcc/arm-none-eabi/5.4.1/../../../../arm-none-eabi/lib/armv7-m\libc.a(lib_a-isattyr.o)
 .debug_frame   0x00001c70       0x2c d:/nxp/lpcxpresso_8.2.2_650/lpcxpresso/tools/bin/../lib/gcc/arm-none-eabi/5.4.1/../../../../arm-none-eabi/lib/armv7-m\libc.a(lib_a-lseekr.o)
 .debug_frame   0x00001c9c       0x30 d:/nxp/lpcxpresso_8.2.2_650/lpcxpresso/tools/bin/../lib/gcc/arm-none-eabi/5.4.1/../../../../arm-none-eabi/lib/armv7-m\libc.a(lib_a-memmove.o)
 .debug_frame   0x00001ccc       0x2c d:/nxp/lpcxpresso_8.2.2_650/lpcxpresso/tools/bin/../lib/gcc/arm-none-eabi/5.4.1/../../../../arm-none-eabi/lib/armv7-m\libc.a(lib_a-readr.o)
 .debug_frame   0x00001cf8       0x58 d:/nxp/lpcxpresso_8.2.2_650/lpcxpresso/tools/bin/../lib/gcc/arm-none-eabi/5.4.1/../../../../arm-none-eabi/lib/armv7-m\libc.a(lib_a-reent.o)
 .debug_frame   0x00001d50       0x40 d:/nxp/lpcxpresso_8.2.2_650/lpcxpresso/tools/bin/../lib/gcc/arm-none-eabi/5.4.1/../../../../arm-none-eabi/lib/armv7-m\libc.a(lib_a-wbuf.o)
 .debug_frame   0x00001d90       0x60 d:/nxp/lpcxpresso_8.2.2_650/lpcxpresso/tools/bin/../lib/gcc/arm-none-eabi/5.4.1/../../../../arm-none-eabi/lib/armv7-m\libc.a(lib_a-wcrtomb.o)
 .debug_frame   0x00001df0       0x48 d:/nxp/lpcxpresso_8.2.2_650/lpcxpresso/tools/bin/../lib/gcc/arm-none-eabi/5.4.1/../../../../arm-none-eabi/lib/armv7-m\libc.a(lib_a-wctomb_r.o)
 .debug_frame   0x00001e38      0x328 d:/nxp/lpcxpresso_8.2.2_650/lpcxpresso/tools/bin/../lib/gcc/arm-none-eabi/5.4.1/../../../../arm-none-eabi/lib/armv7-m\libcr_newlib_semihost.a(syscalls.o)
 .debug_frame   0x00002160       0x2c d:/nxp/lpcxpresso_8.2.2_650/lpcxpresso/tools/bin/../lib/gcc/arm-none-eabi/5.4.1/armv7-m\libgcc.a(_aeabi_uldivmod.o)
 .debug_frame   0x0000218c       0x38 d:/nxp/lpcxpresso_8.2.2_650/lpcxpresso/tools/bin/../lib/gcc/arm-none-eabi/5.4.1/armv7-m\libgcc.a(_udivmoddi4.o)
 .debug_frame   0x000021c4       0x20 d:/nxp/lpcxpresso_8.2.2_650/lpcxpresso/tools/bin/../lib/gcc/arm-none-eabi/5.4.1/../../../../arm-none-eabi/lib/armv7-m\libc.a(lib_a-errno.o)

.debug_macinfo  0x00000000     0x5622
 .debug_macinfo
                0x00000000     0x5622 ../Libraries\libCMSISv2_LPC17xx.a(system_LPC17xx.o)
